---
triple:          'arm64-apple-darwin'
binary-path:     a.out
relocations:
  - { offsetInCU: 0x59, offset: 0x59, size: 0x8, addend: 0x0, symName: __ZN8interval5emptyE, symObjAddr: 0x70DB0, symBinAddr: 0x100018000, symSize: 0x0 }
  - { offsetInCU: 0x14B, offset: 0x14B, size: 0x8, addend: 0x0, symName: __ZN8interval8universeE, symObjAddr: 0x70DC0, symBinAddr: 0x100018010, symSize: 0x0 }
  - { offsetInCU: 0x158, offset: 0x158, size: 0x8, addend: 0x0, symName: __Z11write_colorRNSt3__113basic_ostreamIcNS_11char_traitsIcEEEERK4vec3, symObjAddr: 0x3C, symBinAddr: 0x100000FE8, symSize: 0x19C }
  - { offsetInCU: 0x17D, offset: 0x17D, size: 0x8, addend: 0x0, symName: __ZZ11write_colorRNSt3__113basic_ostreamIcNS_11char_traitsIcEEEERK4vec3E9intensity, symObjAddr: 0x70DD0, symBinAddr: 0x100018020, symSize: 0x0 }
  - { offsetInCU: 0x574D, offset: 0x574D, size: 0x8, addend: 0x0, symName: __ZNSt3__124__put_character_sequenceB8ne180100IcNS_11char_traitsIcEEEERNS_13basic_ostreamIT_T0_EES7_PKS4_m, symObjAddr: 0x6C44, symBinAddr: 0x100007BF0, symSize: 0x1EC }
  - { offsetInCU: 0x74C1, offset: 0x74C1, size: 0x8, addend: 0x0, symName: __ZNSt3__16__math4fmaxB8ne180100IidLi0EEENS_9__promoteIT_T0_vE4typeES3_S4_, symObjAddr: 0xAE74, symBinAddr: 0x10000BE20, symSize: 0x38 }
  - { offsetInCU: 0x751E, offset: 0x751E, size: 0x8, addend: 0x0, symName: __ZNSt3__16__math3powB8ne180100IdiLi0EEENS_9__promoteIT_T0_vE4typeES3_S4_, symObjAddr: 0xD504, symBinAddr: 0x10000E4B0, symSize: 0x38 }
  - { offsetInCU: 0x75BF, offset: 0x75BF, size: 0x8, addend: 0x0, symName: __ZNSt3__16__math4fmaxB8ne180100IiEEddd, symObjAddr: 0xB218, symBinAddr: 0x10000C1C4, symSize: 0x20 }
  - { offsetInCU: 0x75FE, offset: 0x75FE, size: 0x8, addend: 0x0, symName: __ZNSt3__16__math3powB8ne180100IiEEddd, symObjAddr: 0xD53C, symBinAddr: 0x10000E4E8, symSize: 0x2C }
  - { offsetInCU: 0x9D10, offset: 0x9D10, size: 0x8, addend: 0x0, symName: __ZNSt3__1lsB8ne180100INS_11char_traitsIcEEEERNS_13basic_ostreamIcT_EES6_c, symObjAddr: 0x2E4, symBinAddr: 0x100001290, symSize: 0x34 }
  - { offsetInCU: 0x9D56, offset: 0x9D56, size: 0x8, addend: 0x0, symName: __ZNSt3__111make_sharedB8ne180100I10lambertianJ4vec3EvEENS_10shared_ptrIT_EEDpOT0_, symObjAddr: 0xCF8, symBinAddr: 0x100001CA4, symSize: 0x40 }
  - { offsetInCU: 0x9D99, offset: 0x9D99, size: 0x8, addend: 0x0, symName: __ZNSt3__111make_sharedB8ne180100I6sphereJ4vec3iRNS_10shared_ptrI10lambertianEEEvEENS3_IT_EEDpOT0_, symObjAddr: 0xDAC, symBinAddr: 0x100001D58, symSize: 0x50 }
  - { offsetInCU: 0x9FEE, offset: 0x9FEE, size: 0x8, addend: 0x0, symName: __ZNSt3__111make_sharedB8ne180100I10lambertianJR4vec3EvEENS_10shared_ptrIT_EEDpOT0_, symObjAddr: 0x102C, symBinAddr: 0x100001FD8, symSize: 0x40 }
  - { offsetInCU: 0xA21B, offset: 0xA21B, size: 0x8, addend: 0x0, symName: __ZNSt3__111make_sharedB8ne180100I6sphereJR4vec3dRNS_10shared_ptrI8materialEEEvEENS4_IT_EEDpOT0_, symObjAddr: 0x10E8, symBinAddr: 0x100002094, symSize: 0x50 }
  - { offsetInCU: 0xA286, offset: 0xA286, size: 0x8, addend: 0x0, symName: __ZNSt3__111make_sharedB8ne180100I5metalJR4vec3RdEvEENS_10shared_ptrIT_EEDpOT0_, symObjAddr: 0x11F0, symBinAddr: 0x10000219C, symSize: 0x48 }
  - { offsetInCU: 0xA4C7, offset: 0xA4C7, size: 0x8, addend: 0x0, symName: __ZNSt3__111make_sharedB8ne180100I10dielectricJdEvEENS_10shared_ptrIT_EEDpOT0_, symObjAddr: 0x12B4, symBinAddr: 0x100002260, symSize: 0x40 }
  - { offsetInCU: 0xA6F4, offset: 0xA6F4, size: 0x8, addend: 0x0, symName: __ZNSt3__111make_sharedB8ne180100I6sphereJ4vec3dRNS_10shared_ptrI10dielectricEEEvEENS3_IT_EEDpOT0_, symObjAddr: 0x139C, symBinAddr: 0x100002348, symSize: 0x50 }
  - { offsetInCU: 0xA75F, offset: 0xA75F, size: 0x8, addend: 0x0, symName: __ZNSt3__111make_sharedB8ne180100I6sphereJ4vec3dRNS_10shared_ptrI10lambertianEEEvEENS3_IT_EEDpOT0_, symObjAddr: 0x13EC, symBinAddr: 0x100002398, symSize: 0x50 }
  - { offsetInCU: 0xA7CA, offset: 0xA7CA, size: 0x8, addend: 0x0, symName: __ZNSt3__111make_sharedB8ne180100I5metalJ4vec3dEvEENS_10shared_ptrIT_EEDpOT0_, symObjAddr: 0x143C, symBinAddr: 0x1000023E8, symSize: 0x48 }
  - { offsetInCU: 0xA821, offset: 0xA821, size: 0x8, addend: 0x0, symName: __ZNSt3__111make_sharedB8ne180100I6sphereJ4vec3dRNS_10shared_ptrI5metalEEEvEENS3_IT_EEDpOT0_, symObjAddr: 0x1484, symBinAddr: 0x100002430, symSize: 0x50 }
  - { offsetInCU: 0xA88C, offset: 0xA88C, size: 0x8, addend: 0x0, symName: __ZNSt3__111make_sharedB8ne180100I3triJ4vec3S2_S2_RNS_10shared_ptrI10lambertianEEEvEENS3_IT_EEDpOT0_, symObjAddr: 0x25D8, symBinAddr: 0x100003584, symSize: 0x58 }
  - { offsetInCU: 0xAAF5, offset: 0xAAF5, size: 0x8, addend: 0x0, symName: __ZNSt3__111make_sharedB8ne180100I4quadJ4vec3S2_S2_RNS_10shared_ptrI10lambertianEEEvEENS3_IT_EEDpOT0_, symObjAddr: 0x2690, symBinAddr: 0x10000363C, symSize: 0x58 }
  - { offsetInCU: 0xAFF2, offset: 0xAFF2, size: 0x8, addend: 0x0, symName: __ZNSt3__111make_sharedB8ne180100I3triJR4vec3S3_S3_NS_10shared_ptrI10lambertianEEEvEENS4_IT_EEDpOT0_, symObjAddr: 0x2D84, symBinAddr: 0x100003D30, symSize: 0x58 }
  - { offsetInCU: 0xB071, offset: 0xB071, size: 0x8, addend: 0x0, symName: __ZNSt3__1neB8ne180100IPKNS_10shared_ptrI8hittableEEEEbRKNS_11__wrap_iterIT_EESA_, symObjAddr: 0x3B90, symBinAddr: 0x100004B3C, symSize: 0x34 }
  - { offsetInCU: 0xB0B4, offset: 0xB0B4, size: 0x8, addend: 0x0, symName: __ZNSt3__1eqB8ne180100IPKNS_10shared_ptrI8hittableEEEEbRKNS_11__wrap_iterIT_EESA_, symObjAddr: 0x3DCC, symBinAddr: 0x100004D78, symSize: 0x48 }
  - { offsetInCU: 0xB0F7, offset: 0xB0F7, size: 0x8, addend: 0x0, symName: __ZNSt3__134__libcpp_atomic_refcount_incrementB8ne180100IlEET_RS1_, symObjAddr: 0x3FB0, symBinAddr: 0x100004F5C, symSize: 0x30 }
  - { offsetInCU: 0xB12C, offset: 0xB12C, size: 0x8, addend: 0x0, symName: __ZNSt3__14swapB8ne180100IP8materialEENS_9enable_ifIXaasr21is_move_constructibleIT_EE5valuesr18is_move_assignableIS4_EE5valueEvE4typeERS4_S7_, symObjAddr: 0x3FE0, symBinAddr: 0x100004F8C, symSize: 0x3C }
  - { offsetInCU: 0xB17D, offset: 0xB17D, size: 0x8, addend: 0x0, symName: __ZNSt3__14swapB8ne180100IPNS_19__shared_weak_countEEENS_9enable_ifIXaasr21is_move_constructibleIT_EE5valuesr18is_move_assignableIS4_EE5valueEvE4typeERS4_S7_, symObjAddr: 0x401C, symBinAddr: 0x100004FC8, symSize: 0x3C }
  - { offsetInCU: 0xB1CE, offset: 0xB1CE, size: 0x8, addend: 0x0, symName: __ZNSt3__112__to_addressB8ne180100INS_10shared_ptrI8hittableEEEEPT_S5_, symObjAddr: 0x43C0, symBinAddr: 0x10000536C, symSize: 0x14 }
  - { offsetInCU: 0xB203, offset: 0xB203, size: 0x8, addend: 0x0, symName: __ZNSt3__13maxB8ne180100ImEERKT_S3_S3_, symObjAddr: 0x4860, symBinAddr: 0x10000580C, symSize: 0x2C }
  - { offsetInCU: 0xB246, offset: 0xB246, size: 0x8, addend: 0x0, symName: __ZNSt3__13minB8ne180100ImEERKT_S3_S3_, symObjAddr: 0x488C, symBinAddr: 0x100005838, symSize: 0x2C }
  - { offsetInCU: 0xB48A, offset: 0xB48A, size: 0x8, addend: 0x0, symName: __ZNSt3__13minB8ne180100ImNS_6__lessIvvEEEERKT_S5_S5_T0_, symObjAddr: 0x4918, symBinAddr: 0x1000058C4, symSize: 0x54 }
  - { offsetInCU: 0xB55A, offset: 0xB55A, size: 0x8, addend: 0x0, symName: __ZNSt3__120__throw_length_errorB8ne180100EPKc, symObjAddr: 0x49F4, symBinAddr: 0x1000059A0, symSize: 0x64 }
  - { offsetInCU: 0xB582, offset: 0xB582, size: 0x8, addend: 0x0, symName: __ZNSt3__13maxB8ne180100ImNS_6__lessIvvEEEERKT_S5_S5_T0_, symObjAddr: 0x4B38, symBinAddr: 0x100005AE4, symSize: 0x54 }
  - { offsetInCU: 0xB5DC, offset: 0xB5DC, size: 0x8, addend: 0x0, symName: __ZNSt3__119__allocate_at_leastB8ne180100INS_9allocatorINS_10shared_ptrI8hittableEEEEEENS_19__allocation_resultINS_16allocator_traitsIT_E7pointerEEERS8_m, symObjAddr: 0x4C9C, symBinAddr: 0x100005C48, symSize: 0x40 }
  - { offsetInCU: 0xB61F, offset: 0xB61F, size: 0x8, addend: 0x0, symName: __ZNSt3__117__libcpp_allocateB8ne180100Emm, symObjAddr: 0x4E20, symBinAddr: 0x100005DCC, symSize: 0x28 }
  - { offsetInCU: 0xB65C, offset: 0xB65C, size: 0x8, addend: 0x0, symName: __ZNSt3__121__libcpp_operator_newB8ne180100IJmEEEPvDpT_, symObjAddr: 0x4E48, symBinAddr: 0x100005DF4, symSize: 0x24 }
  - { offsetInCU: 0xB695, offset: 0xB695, size: 0x8, addend: 0x0, symName: __ZNSt3__142__uninitialized_allocator_move_if_noexceptB8ne180100INS_9allocatorINS_10shared_ptrI8hittableEEEENS_16reverse_iteratorIPS4_EES8_S8_EET2_RT_T0_T1_S9_, symObjAddr: 0x4EE0, symBinAddr: 0x100005E8C, symSize: 0x12C }
  - { offsetInCU: 0xB735, offset: 0xB735, size: 0x8, addend: 0x0, symName: __ZNSt3__14swapB8ne180100IPNS_10shared_ptrI8hittableEEEENS_9enable_ifIXaasr21is_move_constructibleIT_EE5valuesr18is_move_assignableIS6_EE5valueEvE4typeERS6_S9_, symObjAddr: 0x5058, symBinAddr: 0x100006004, symSize: 0x3C }
  - { offsetInCU: 0xB786, offset: 0xB786, size: 0x8, addend: 0x0, symName: __ZNSt3__122__make_exception_guardB8ne180100INS_29_AllocatorDestroyRangeReverseINS_9allocatorINS_10shared_ptrI8hittableEEEENS_16reverse_iteratorIPS5_EEEEEENS_28__exception_guard_exceptionsIT_EESC_, symObjAddr: 0x50A8, symBinAddr: 0x100006054, symSize: 0x4C }
  - { offsetInCU: 0xB7BC, offset: 0xB7BC, size: 0x8, addend: 0x0, symName: __ZNSt3__1neB8ne180100IPNS_10shared_ptrI8hittableEES4_EEbRKNS_16reverse_iteratorIT_EERKNS5_IT0_EE, symObjAddr: 0x5138, symBinAddr: 0x1000060E4, symSize: 0x48 }
  - { offsetInCU: 0xB808, offset: 0xB808, size: 0x8, addend: 0x0, symName: __ZNSt3__112__to_addressB8ne180100INS_16reverse_iteratorIPNS_10shared_ptrI8hittableEEEEvEEu7__decayIDTclsr19__to_address_helperIT_EE6__callclsr3stdE7declvalIRKS7_EEEEES9_, symObjAddr: 0x51B4, symBinAddr: 0x100006160, symSize: 0x24 }
  - { offsetInCU: 0xB867, offset: 0xB867, size: 0x8, addend: 0x0, symName: __ZNSt3__119__allocator_destroyB8ne180100INS_9allocatorINS_10shared_ptrI8hittableEEEENS_16reverse_iteratorINS6_IPS4_EEEES9_EEvRT_T0_T1_, symObjAddr: 0x5508, symBinAddr: 0x1000064B4, symSize: 0x70 }
  - { offsetInCU: 0xB8CC, offset: 0xB8CC, size: 0x8, addend: 0x0, symName: __ZNSt3__1neB8ne180100INS_16reverse_iteratorIPNS_10shared_ptrI8hittableEEEES6_EEbRKNS1_IT_EERKNS1_IT0_EE, symObjAddr: 0x55B4, symBinAddr: 0x100006560, symSize: 0x60 }
  - { offsetInCU: 0xB918, offset: 0xB918, size: 0x8, addend: 0x0, symName: __ZNSt3__112__to_addressB8ne180100INS_16reverse_iteratorINS1_IPNS_10shared_ptrI8hittableEEEEEEvEEu7__decayIDTclsr19__to_address_helperIT_EE6__callclsr3stdE7declvalIRKS8_EEEEESA_, symObjAddr: 0x5640, symBinAddr: 0x1000065EC, symSize: 0x24 }
  - { offsetInCU: 0xB977, offset: 0xB977, size: 0x8, addend: 0x0, symName: __ZNSt3__119__libcpp_deallocateB8ne180100EPvmm, symObjAddr: 0x59F8, symBinAddr: 0x1000069A4, symSize: 0x30 }
  - { offsetInCU: 0xB9BF, offset: 0xB9BF, size: 0x8, addend: 0x0, symName: __ZNSt3__127__do_deallocate_handle_sizeB8ne180100IJEEEvPvmDpT_, symObjAddr: 0x5A28, symBinAddr: 0x1000069D4, symSize: 0x28 }
  - { offsetInCU: 0xB9FD, offset: 0xB9FD, size: 0x8, addend: 0x0, symName: __ZNSt3__124__libcpp_operator_deleteB8ne180100IJPvEEEvDpT_, symObjAddr: 0x5A50, symBinAddr: 0x1000069FC, symSize: 0x24 }
  - { offsetInCU: 0xBA32, offset: 0xBA32, size: 0x8, addend: 0x0, symName: __ZNSt3__13minB8ne180100IdEERKT_S3_S3_, symObjAddr: 0x5CD8, symBinAddr: 0x100006C84, symSize: 0x2C }
  - { offsetInCU: 0xBA75, offset: 0xBA75, size: 0x8, addend: 0x0, symName: __ZNSt3__13maxB8ne180100IdEERKT_S3_S3_, symObjAddr: 0x5D48, symBinAddr: 0x100006CF4, symSize: 0x2C }
  - { offsetInCU: 0xBAB8, offset: 0xBAB8, size: 0x8, addend: 0x0, symName: __ZNSt3__13minB8ne180100IdNS_6__lessIvvEEEERKT_S5_S5_T0_, symObjAddr: 0x5E34, symBinAddr: 0x100006DE0, symSize: 0x54 }
  - { offsetInCU: 0xBB12, offset: 0xBB12, size: 0x8, addend: 0x0, symName: __ZNSt3__13maxB8ne180100IdNS_6__lessIvvEEEERKT_S5_S5_T0_, symObjAddr: 0x5EBC, symBinAddr: 0x100006E68, symSize: 0x54 }
  - { offsetInCU: 0xBB6C, offset: 0xBB6C, size: 0x8, addend: 0x0, symName: __ZNSt3__1lsB8ne180100INS_11char_traitsIcEEEERNS_13basic_ostreamIcT_EES6_PKc, symObjAddr: 0x64A0, symBinAddr: 0x10000744C, symSize: 0x48 }
  - { offsetInCU: 0xBBB2, offset: 0xBBB2, size: 0x8, addend: 0x0, symName: __ZNSt3__15flushB8ne180100IcNS_11char_traitsIcEEEERNS_13basic_ostreamIT_T0_EES7_, symObjAddr: 0x6514, symBinAddr: 0x1000074C0, symSize: 0x28 }
  - { offsetInCU: 0xBBF2, offset: 0xBBF2, size: 0x8, addend: 0x0, symName: __ZNSt3__116__pad_and_outputB8ne180100IcNS_11char_traitsIcEEEENS_19ostreambuf_iteratorIT_T0_EES6_PKS4_S8_S8_RNS_8ios_baseES4_, symObjAddr: 0x6E80, symBinAddr: 0x100007E2C, symSize: 0x240 }
  - { offsetInCU: 0xBCC1, offset: 0xBCC1, size: 0x8, addend: 0x0, symName: __ZNSt3__112__to_addressB8ne180100IKcEEPT_S3_, symObjAddr: 0x73E8, symBinAddr: 0x100008394, symSize: 0x14 }
  - { offsetInCU: 0xBD29, offset: 0xBD29, size: 0x8, addend: 0x0, symName: __ZNSt3__19use_facetB8ne180100INS_5ctypeIcEEEERKT_RKNS_6localeE, symObjAddr: 0x7668, symBinAddr: 0x100008614, symSize: 0x2C }
  - { offsetInCU: 0xC1F6, offset: 0xC1F6, size: 0x8, addend: 0x0, symName: __ZNSt3__118__constexpr_strlenB8ne180100EPKc, symObjAddr: 0x7700, symBinAddr: 0x1000086AC, symSize: 0x24 }
  - { offsetInCU: 0xC222, offset: 0xC222, size: 0x8, addend: 0x0, symName: __ZNSt3__14endlB8ne180100IcNS_11char_traitsIcEEEERNS_13basic_ostreamIT_T0_EES7_, symObjAddr: 0x7DB4, symBinAddr: 0x100008D60, symSize: 0x58 }
  - { offsetInCU: 0xC262, offset: 0xC262, size: 0x8, addend: 0x0, symName: __ZNSt3__14swapB8ne180100I8hittableEEvRNS_10shared_ptrIT_EES5_, symObjAddr: 0x7E0C, symBinAddr: 0x100008DB8, symSize: 0x2C }
  - { offsetInCU: 0xC2A4, offset: 0xC2A4, size: 0x8, addend: 0x0, symName: __ZNSt3__14swapB8ne180100IP8hittableEENS_9enable_ifIXaasr21is_move_constructibleIT_EE5valuesr18is_move_assignableIS4_EE5valueEvE4typeERS4_S7_, symObjAddr: 0x7E7C, symBinAddr: 0x100008E28, symSize: 0x3C }
  - { offsetInCU: 0xC2F5, offset: 0xC2F5, size: 0x8, addend: 0x0, symName: __ZNSt3__122__make_exception_guardB8ne180100INS_6vectorINS_10shared_ptrI8hittableEENS_9allocatorIS4_EEE16__destroy_vectorEEENS_28__exception_guard_exceptionsIT_EESA_, symObjAddr: 0x8190, symBinAddr: 0x10000913C, symSize: 0x40 }
  - { offsetInCU: 0xC32A, offset: 0xC32A, size: 0x8, addend: 0x0, symName: __ZNSt3__130__uninitialized_allocator_copyB8ne180100INS_9allocatorINS_10shared_ptrI8hittableEEEEPS4_S6_S6_EET2_RT_T0_T1_S7_, symObjAddr: 0x83A8, symBinAddr: 0x100009354, symSize: 0x80 }
  - { offsetInCU: 0xC3C7, offset: 0xC3C7, size: 0x8, addend: 0x0, symName: __ZNSt3__114__unwrap_rangeB8ne180100IPNS_10shared_ptrI8hittableEES4_EENS_4pairIT0_S6_EET_S8_, symObjAddr: 0x8428, symBinAddr: 0x1000093D4, symSize: 0x60 }
  - { offsetInCU: 0xC413, offset: 0xC413, size: 0x8, addend: 0x0, symName: __ZNSt3__135__uninitialized_allocator_copy_implB8ne180100INS_9allocatorINS_10shared_ptrI8hittableEEEEPS4_S6_S6_EET2_RT_T0_T1_S7_, symObjAddr: 0x8488, symBinAddr: 0x100009434, symSize: 0xF4 }
  - { offsetInCU: 0xC4B1, offset: 0xC4B1, size: 0x8, addend: 0x0, symName: __ZNSt3__113__unwrap_iterB8ne180100IPNS_10shared_ptrI8hittableEENS_18__unwrap_iter_implIS4_Lb1EEELi0EEEDTclsrT0_8__unwrapclsr3stdE7declvalIT_EEEES8_, symObjAddr: 0x857C, symBinAddr: 0x100009528, symSize: 0x24 }
  - { offsetInCU: 0xC4F5, offset: 0xC4F5, size: 0x8, addend: 0x0, symName: __ZNSt3__113__rewrap_iterB8ne180100IPNS_10shared_ptrI8hittableEES4_NS_18__unwrap_iter_implIS4_Lb1EEEEET_S7_T0_, symObjAddr: 0x85A0, symBinAddr: 0x10000954C, symSize: 0x3C }
  - { offsetInCU: 0xC54A, offset: 0xC54A, size: 0x8, addend: 0x0, symName: __ZNSt3__19make_pairB8ne180100IPNS_10shared_ptrI8hittableEES4_EENS_4pairINS_18__unwrap_ref_decayIT_E4typeENS6_IT0_E4typeEEEOS7_OSA_, symObjAddr: 0x85DC, symBinAddr: 0x100009588, symSize: 0x38 }
  - { offsetInCU: 0xC66D, offset: 0xC66D, size: 0x8, addend: 0x0, symName: __ZNSt3__122__make_exception_guardB8ne180100INS_29_AllocatorDestroyRangeReverseINS_9allocatorINS_10shared_ptrI8hittableEEEEPS5_EEEENS_28__exception_guard_exceptionsIT_EESA_, symObjAddr: 0x8684, symBinAddr: 0x100009630, symSize: 0x4C }
  - { offsetInCU: 0xC6A3, offset: 0xC6A3, size: 0x8, addend: 0x0, symName: __ZNSt3__119__allocator_destroyB8ne180100INS_9allocatorINS_10shared_ptrI8hittableEEEENS_16reverse_iteratorIPS4_EES8_EEvRT_T0_T1_, symObjAddr: 0x8914, symBinAddr: 0x1000098C0, symSize: 0x70 }
  - { offsetInCU: 0xC759, offset: 0xC759, size: 0x8, addend: 0x0, symName: __ZNSt3__134__libcpp_atomic_refcount_decrementB8ne180100IlEET_RS1_, symObjAddr: 0x96B4, symBinAddr: 0x10000A660, symSize: 0x30 }
  - { offsetInCU: 0xC78E, offset: 0xC78E, size: 0x8, addend: 0x0, symName: __ZNSt3__115allocate_sharedB8ne180100I10lambertianNS_9allocatorIS1_EEJ4vec3EvEENS_10shared_ptrIT_EERKT0_DpOT1_, symObjAddr: 0x9738, symBinAddr: 0x10000A6E4, symSize: 0x98 }
  - { offsetInCU: 0xCC27, offset: 0xCC27, size: 0x8, addend: 0x0, symName: __ZNSt3__115allocate_sharedB8ne180100I6sphereNS_9allocatorIS1_EEJ4vec3iRNS_10shared_ptrI10lambertianEEEvEENS5_IT_EERKT0_DpOT1_, symObjAddr: 0xA5F4, symBinAddr: 0x10000B5A0, symSize: 0xA8 }
  - { offsetInCU: 0xD1E0, offset: 0xD1E0, size: 0x8, addend: 0x0, symName: __ZNSt3__115allocate_sharedB8ne180100I10lambertianNS_9allocatorIS1_EEJR4vec3EvEENS_10shared_ptrIT_EERKT0_DpOT1_, symObjAddr: 0xB674, symBinAddr: 0x10000C620, symSize: 0x98 }
  - { offsetInCU: 0xD259, offset: 0xD259, size: 0x8, addend: 0x0, symName: __ZNSt3__115allocate_sharedB8ne180100I6sphereNS_9allocatorIS1_EEJR4vec3dRNS_10shared_ptrI8materialEEEvEENS6_IT_EERKT0_DpOT1_, symObjAddr: 0xB8E0, symBinAddr: 0x10000C88C, symSize: 0xA8 }
  - { offsetInCU: 0xD2FB, offset: 0xD2FB, size: 0x8, addend: 0x0, symName: __ZNSt3__115allocate_sharedB8ne180100I5metalNS_9allocatorIS1_EEJR4vec3RdEvEENS_10shared_ptrIT_EERKT0_DpOT1_, symObjAddr: 0xBB80, symBinAddr: 0x10000CB2C, symSize: 0xA0 }
  - { offsetInCU: 0xD7BC, offset: 0xD7BC, size: 0x8, addend: 0x0, symName: __ZNSt3__115allocate_sharedB8ne180100I10dielectricNS_9allocatorIS1_EEJdEvEENS_10shared_ptrIT_EERKT0_DpOT1_, symObjAddr: 0xC980, symBinAddr: 0x10000D92C, symSize: 0x98 }
  - { offsetInCU: 0xDC24, offset: 0xDC24, size: 0x8, addend: 0x0, symName: __ZNSt3__115allocate_sharedB8ne180100I6sphereNS_9allocatorIS1_EEJ4vec3dRNS_10shared_ptrI10dielectricEEEvEENS5_IT_EERKT0_DpOT1_, symObjAddr: 0xD930, symBinAddr: 0x10000E8DC, symSize: 0xA8 }
  - { offsetInCU: 0xDCC6, offset: 0xDCC6, size: 0x8, addend: 0x0, symName: __ZNSt3__115allocate_sharedB8ne180100I6sphereNS_9allocatorIS1_EEJ4vec3dRNS_10shared_ptrI10lambertianEEEvEENS5_IT_EERKT0_DpOT1_, symObjAddr: 0xDC74, symBinAddr: 0x10000EC20, symSize: 0xA8 }
  - { offsetInCU: 0xDD68, offset: 0xDD68, size: 0x8, addend: 0x0, symName: __ZNSt3__115allocate_sharedB8ne180100I5metalNS_9allocatorIS1_EEJ4vec3dEvEENS_10shared_ptrIT_EERKT0_DpOT1_, symObjAddr: 0xDF14, symBinAddr: 0x10000EEC0, symSize: 0xA0 }
  - { offsetInCU: 0xDDF5, offset: 0xDDF5, size: 0x8, addend: 0x0, symName: __ZNSt3__115allocate_sharedB8ne180100I6sphereNS_9allocatorIS1_EEJ4vec3dRNS_10shared_ptrI5metalEEEvEENS5_IT_EERKT0_DpOT1_, symObjAddr: 0xE138, symBinAddr: 0x10000F0E4, symSize: 0xA8 }
  - { offsetInCU: 0xDE97, offset: 0xDE97, size: 0x8, addend: 0x0, symName: __ZNSt3__115allocate_sharedB8ne180100I3triNS_9allocatorIS1_EEJ4vec3S4_S4_RNS_10shared_ptrI10lambertianEEEvEENS5_IT_EERKT0_DpOT1_, symObjAddr: 0xE47C, symBinAddr: 0x10000F428, symSize: 0xB0 }
  - { offsetInCU: 0xE3A8, offset: 0xE3A8, size: 0x8, addend: 0x0, symName: __ZNSt3__115allocate_sharedB8ne180100I4quadNS_9allocatorIS1_EEJ4vec3S4_S4_RNS_10shared_ptrI10lambertianEEEvEENS5_IT_EERKT0_DpOT1_, symObjAddr: 0xEFE8, symBinAddr: 0x10000FF94, symSize: 0xB0 }
  - { offsetInCU: 0xE86A, offset: 0xE86A, size: 0x8, addend: 0x0, symName: __ZNSt3__118generate_canonicalB8ne180100IdLm53ENS_23mersenne_twister_engineIjLm32ELm624ELm397ELm31ELj2567483615ELm11ELj4294967295ELm7ELj2636928640ELm15ELj4022730752ELm18ELj1812433253EEEEET_RT1_, symObjAddr: 0x10CE0, symBinAddr: 0x100011C8C, symSize: 0x114 }
  - { offsetInCU: 0xE930, offset: 0xE930, size: 0x8, addend: 0x0, symName: __ZNSt3__115allocate_sharedB8ne180100I3triNS_9allocatorIS1_EEJR4vec3S5_S5_NS_10shared_ptrI10lambertianEEEvEENS6_IT_EERKT0_DpOT1_, symObjAddr: 0x10FD0, symBinAddr: 0x100011F7C, symSize: 0xB0 }
  - { offsetInCU: 0xEEEF, offset: 0xEEEF, size: 0x8, addend: 0x0, symName: __ZSt28__throw_bad_array_new_lengthB8ne180100v, symObjAddr: 0x4DEC, symBinAddr: 0x100005D98, symSize: 0x34 }
  - { offsetInCU: 0xF8D6, offset: 0xF8D6, size: 0x8, addend: 0x0, symName: __ZNSt3__16vectorINS_10shared_ptrI8hittableEENS_9allocatorIS3_EEE26__swap_out_circular_bufferERNS_14__split_bufferIS3_RS5_EE, symObjAddr: 0x4668, symBinAddr: 0x100005614, symSize: 0x110 }
  - { offsetInCU: 0x126E7, offset: 0x126E7, size: 0x8, addend: 0x0, symName: __ZN8intervalC1Edd, symObjAddr: 0x0, symBinAddr: 0x100000FAC, symSize: 0x3C }
  - { offsetInCU: 0x1272D, offset: 0x1272D, size: 0x8, addend: 0x0, symName: __ZNK4vec31xEv, symObjAddr: 0x1D8, symBinAddr: 0x100001184, symSize: 0x18 }
  - { offsetInCU: 0x12753, offset: 0x12753, size: 0x8, addend: 0x0, symName: __ZNK4vec31yEv, symObjAddr: 0x1F0, symBinAddr: 0x10000119C, symSize: 0x18 }
  - { offsetInCU: 0x12779, offset: 0x12779, size: 0x8, addend: 0x0, symName: __ZNK4vec31zEv, symObjAddr: 0x208, symBinAddr: 0x1000011B4, symSize: 0x18 }
  - { offsetInCU: 0x1279E, offset: 0x1279E, size: 0x8, addend: 0x0, symName: __Z15linear_to_gammad, symObjAddr: 0x220, symBinAddr: 0x1000011CC, symSize: 0x44 }
  - { offsetInCU: 0x127CB, offset: 0x127CB, size: 0x8, addend: 0x0, symName: __ZNK8interval5clampEd, symObjAddr: 0x264, symBinAddr: 0x100001210, symSize: 0x80 }
  - { offsetInCU: 0x127FE, offset: 0x127FE, size: 0x8, addend: 0x0, symName: __Z10book_coverv, symObjAddr: 0x318, symBinAddr: 0x1000012C4, symSize: 0x9B4 }
  - { offsetInCU: 0x129F3, offset: 0x129F3, size: 0x8, addend: 0x0, symName: __ZN13hittable_listC1Ev, symObjAddr: 0xCCC, symBinAddr: 0x100001C78, symSize: 0x2C }
  - { offsetInCU: 0x12A1D, offset: 0x12A1D, size: 0x8, addend: 0x0, symName: __ZN4vec3C1Eddd, symObjAddr: 0xD38, symBinAddr: 0x100001CE4, symSize: 0x44 }
  - { offsetInCU: 0x12A71, offset: 0x12A71, size: 0x8, addend: 0x0, symName: __ZN13hittable_list3addENSt3__110shared_ptrI8hittableEE, symObjAddr: 0xD7C, symBinAddr: 0x100001D28, symSize: 0x30 }
  - { offsetInCU: 0x12ACA, offset: 0x12ACA, size: 0x8, addend: 0x0, symName: __ZNSt3__110shared_ptrI8hittableEC1B8ne180100I6spherevEEONS0_IT_EE, symObjAddr: 0xDFC, symBinAddr: 0x100001DA8, symSize: 0x34 }
  - { offsetInCU: 0x12B0D, offset: 0x12B0D, size: 0x8, addend: 0x0, symName: __ZNSt3__110shared_ptrI8hittableED1B8ne180100Ev, symObjAddr: 0xE30, symBinAddr: 0x100001DDC, symSize: 0x2C }
  - { offsetInCU: 0x12B37, offset: 0x12B37, size: 0x8, addend: 0x0, symName: __ZNSt3__110shared_ptrI6sphereED1B8ne180100Ev, symObjAddr: 0xE5C, symBinAddr: 0x100001E08, symSize: 0x2C }
  - { offsetInCU: 0x12B61, offset: 0x12B61, size: 0x8, addend: 0x0, symName: __Z13random_doublev, symObjAddr: 0xE88, symBinAddr: 0x100001E34, symSize: 0x24 }
  - { offsetInCU: 0x12B7E, offset: 0x12B7E, size: 0x8, addend: 0x0, symName: __ZmiRK4vec3S1_, symObjAddr: 0xEAC, symBinAddr: 0x100001E58, symSize: 0x70 }
  - { offsetInCU: 0x12BB9, offset: 0x12BB9, size: 0x8, addend: 0x0, symName: __ZNK4vec36lengthEv, symObjAddr: 0xF1C, symBinAddr: 0x100001EC8, symSize: 0x28 }
  - { offsetInCU: 0x12BDF, offset: 0x12BDF, size: 0x8, addend: 0x0, symName: __ZNSt3__110shared_ptrI8materialEC1B8ne180100Ev, symObjAddr: 0xF44, symBinAddr: 0x100001EF0, symSize: 0x2C }
  - { offsetInCU: 0x12C08, offset: 0x12C08, size: 0x8, addend: 0x0, symName: __ZmlRK4vec3S1_, symObjAddr: 0xF70, symBinAddr: 0x100001F1C, symSize: 0x70 }
  - { offsetInCU: 0x12C43, offset: 0x12C43, size: 0x8, addend: 0x0, symName: __ZN4vec36randomEv, symObjAddr: 0xFE0, symBinAddr: 0x100001F8C, symSize: 0x4C }
  - { offsetInCU: 0x12C7B, offset: 0x12C7B, size: 0x8, addend: 0x0, symName: __ZNSt3__110shared_ptrI8materialEaSB8ne180100I10lambertianvEERS2_ONS0_IT_EE, symObjAddr: 0x106C, symBinAddr: 0x100002018, symSize: 0x50 }
  - { offsetInCU: 0x12CBA, offset: 0x12CBA, size: 0x8, addend: 0x0, symName: __ZNSt3__110shared_ptrI10lambertianED1B8ne180100Ev, symObjAddr: 0x10BC, symBinAddr: 0x100002068, symSize: 0x2C }
  - { offsetInCU: 0x12CE4, offset: 0x12CE4, size: 0x8, addend: 0x0, symName: __ZN4vec36randomEdd, symObjAddr: 0x1138, symBinAddr: 0x1000020E4, symSize: 0x6C }
  - { offsetInCU: 0x12D14, offset: 0x12D14, size: 0x8, addend: 0x0, symName: __Z13random_doubledd, symObjAddr: 0x11A4, symBinAddr: 0x100002150, symSize: 0x4C }
  - { offsetInCU: 0x12D73, offset: 0x12D73, size: 0x8, addend: 0x0, symName: __ZNSt3__110shared_ptrI8materialEaSB8ne180100I5metalvEERS2_ONS0_IT_EE, symObjAddr: 0x1238, symBinAddr: 0x1000021E4, symSize: 0x50 }
  - { offsetInCU: 0x12DB2, offset: 0x12DB2, size: 0x8, addend: 0x0, symName: __ZNSt3__110shared_ptrI5metalED1B8ne180100Ev, symObjAddr: 0x1288, symBinAddr: 0x100002234, symSize: 0x2C }
  - { offsetInCU: 0x12E00, offset: 0x12E00, size: 0x8, addend: 0x0, symName: __ZNSt3__110shared_ptrI8materialEaSB8ne180100I10dielectricvEERS2_ONS0_IT_EE, symObjAddr: 0x12F4, symBinAddr: 0x1000022A0, symSize: 0x50 }
  - { offsetInCU: 0x12E3F, offset: 0x12E3F, size: 0x8, addend: 0x0, symName: __ZNSt3__110shared_ptrI10dielectricED1B8ne180100Ev, symObjAddr: 0x1344, symBinAddr: 0x1000022F0, symSize: 0x2C }
  - { offsetInCU: 0x12E69, offset: 0x12E69, size: 0x8, addend: 0x0, symName: __ZNSt3__110shared_ptrI8materialED1B8ne180100Ev, symObjAddr: 0x1370, symBinAddr: 0x10000231C, symSize: 0x2C }
  - { offsetInCU: 0x12E93, offset: 0x12E93, size: 0x8, addend: 0x0, symName: __ZNKSt3__16vectorINS_10shared_ptrI8hittableEENS_9allocatorIS3_EEE4sizeB8ne180100Ev, symObjAddr: 0x14D4, symBinAddr: 0x100002480, symSize: 0x28 }
  - { offsetInCU: 0x12FC7, offset: 0x12FC7, size: 0x8, addend: 0x0, symName: __ZN8BVH_NodeC1ER13hittable_listii, symObjAddr: 0x14FC, symBinAddr: 0x1000024A8, symSize: 0x44 }
  - { offsetInCU: 0x131E6, offset: 0x131E6, size: 0x8, addend: 0x0, symName: __ZN6cameraC1Ev, symObjAddr: 0x1540, symBinAddr: 0x1000024EC, symSize: 0x2C }
  - { offsetInCU: 0x13212, offset: 0x13212, size: 0x8, addend: 0x0, symName: __ZN6camera6renderERK8hittable, symObjAddr: 0x156C, symBinAddr: 0x100002518, symSize: 0x1E8 }
  - { offsetInCU: 0x132D3, offset: 0x132D3, size: 0x8, addend: 0x0, symName: __ZN13hittable_listD1Ev, symObjAddr: 0x1754, symBinAddr: 0x100002700, symSize: 0x2C }
  - { offsetInCU: 0x132FE, offset: 0x132FE, size: 0x8, addend: 0x0, symName: __Z6simplev, symObjAddr: 0x1780, symBinAddr: 0x10000272C, symSize: 0x8D8 }
  - { offsetInCU: 0x133BB, offset: 0x133BB, size: 0x8, addend: 0x0, symName: __Z5quadsv, symObjAddr: 0x2058, symBinAddr: 0x100003004, symSize: 0x580 }
  - { offsetInCU: 0x13461, offset: 0x13461, size: 0x8, addend: 0x0, symName: __ZNSt3__110shared_ptrI8hittableEC1B8ne180100I3trivEEONS0_IT_EE, symObjAddr: 0x2630, symBinAddr: 0x1000035DC, symSize: 0x34 }
  - { offsetInCU: 0x134A4, offset: 0x134A4, size: 0x8, addend: 0x0, symName: __ZNSt3__110shared_ptrI3triED1B8ne180100Ev, symObjAddr: 0x2664, symBinAddr: 0x100003610, symSize: 0x2C }
  - { offsetInCU: 0x134F2, offset: 0x134F2, size: 0x8, addend: 0x0, symName: __ZNSt3__110shared_ptrI8hittableEC1B8ne180100I4quadvEEONS0_IT_EE, symObjAddr: 0x26E8, symBinAddr: 0x100003694, symSize: 0x34 }
  - { offsetInCU: 0x13535, offset: 0x13535, size: 0x8, addend: 0x0, symName: __ZNSt3__110shared_ptrI4quadED1B8ne180100Ev, symObjAddr: 0x271C, symBinAddr: 0x1000036C8, symSize: 0x2C }
  - { offsetInCU: 0x1355E, offset: 0x1355E, size: 0x8, addend: 0x0, symName: __Z5wowiev, symObjAddr: 0x2748, symBinAddr: 0x1000036F4, symSize: 0x528 }
  - { offsetInCU: 0x13632, offset: 0x13632, size: 0x8, addend: 0x0, symName: __ZNSt3__113random_deviceC1B8ne180100Ev, symObjAddr: 0x2C70, symBinAddr: 0x100003C1C, symSize: 0x74 }
  - { offsetInCU: 0x1365C, offset: 0x1365C, size: 0x8, addend: 0x0, symName: __ZNSt3__123mersenne_twister_engineIjLm32ELm624ELm397ELm31ELj2567483615ELm11ELj4294967295ELm7ELj2636928640ELm15ELj4022730752ELm18ELj1812433253EEC1B8ne180100Ej, symObjAddr: 0x2CE4, symBinAddr: 0x100003C90, symSize: 0x34 }
  - { offsetInCU: 0x136B7, offset: 0x136B7, size: 0x8, addend: 0x0, symName: __ZNSt3__125uniform_real_distributionIdEC1B8ne180100Edd, symObjAddr: 0x2D18, symBinAddr: 0x100003CC4, symSize: 0x3C }
  - { offsetInCU: 0x13702, offset: 0x13702, size: 0x8, addend: 0x0, symName: __ZNSt3__125uniform_real_distributionIdEclB8ne180100INS_23mersenne_twister_engineIjLm32ELm624ELm397ELm31ELj2567483615ELm11ELj4294967295ELm7ELj2636928640ELm15ELj4022730752ELm18ELj1812433253EEEEEdRT_, symObjAddr: 0x2D54, symBinAddr: 0x100003D00, symSize: 0x30 }
  - { offsetInCU: 0x1373F, offset: 0x1373F, size: 0x8, addend: 0x0, symName: __ZN8BVH_Node9subdivideE13hittable_list, symObjAddr: 0x2DDC, symBinAddr: 0x100003D88, symSize: 0x2B8 }
  - { offsetInCU: 0x137FE, offset: 0x137FE, size: 0x8, addend: 0x0, symName: __ZN13hittable_listC1ERKS_, symObjAddr: 0x3094, symBinAddr: 0x100004040, symSize: 0x34 }
  - { offsetInCU: 0x13833, offset: 0x13833, size: 0x8, addend: 0x0, symName: __ZN8BVH_Node8traverseEv, symObjAddr: 0x30C8, symBinAddr: 0x100004074, symSize: 0xB8 }
  - { offsetInCU: 0x13858, offset: 0x13858, size: 0x8, addend: 0x0, symName: __Z8tri_testv, symObjAddr: 0x3180, symBinAddr: 0x10000412C, symSize: 0x3E4 }
  - { offsetInCU: 0x138CB, offset: 0x138CB, size: 0x8, addend: 0x0, symName: __ZNSt3__110shared_ptrI8materialEC1B8ne180100I10lambertianvEERKNS0_IT_EE, symObjAddr: 0x3564, symBinAddr: 0x100004510, symSize: 0x34 }
  - { offsetInCU: 0x1390E, offset: 0x1390E, size: 0x8, addend: 0x0, symName: __ZN3triC1ERK4vec3S2_S2_NSt3__110shared_ptrI8materialEE, symObjAddr: 0x3598, symBinAddr: 0x100004544, symSize: 0x4C }
  - { offsetInCU: 0x13971, offset: 0x13971, size: 0x8, addend: 0x0, symName: __ZNSt3__110shared_ptrI8hittableEC1B8ne180100I3trivEERKNS0_IT_EE, symObjAddr: 0x35E4, symBinAddr: 0x100004590, symSize: 0x34 }
  - { offsetInCU: 0x139B4, offset: 0x139B4, size: 0x8, addend: 0x0, symName: __ZNK3tri4centEv, symObjAddr: 0x3618, symBinAddr: 0x1000045C4, symSize: 0x30 }
  - { offsetInCU: 0x139DA, offset: 0x139DA, size: 0x8, addend: 0x0, symName: __ZN3triD1Ev, symObjAddr: 0x3648, symBinAddr: 0x1000045F4, symSize: 0x2C }
  - { offsetInCU: 0x13A06, offset: 0x13A06, size: 0x8, addend: 0x0, symName: _main, symObjAddr: 0x3674, symBinAddr: 0x100004620, symSize: 0x18 }
  - { offsetInCU: 0x13A20, offset: 0x13A20, size: 0x8, addend: 0x0, symName: __ZN8intervalC2Edd, symObjAddr: 0x368C, symBinAddr: 0x100004638, symSize: 0x2C }
  - { offsetInCU: 0x13A66, offset: 0x13A66, size: 0x8, addend: 0x0, symName: __ZN13hittable_listC2Ev, symObjAddr: 0x36B8, symBinAddr: 0x100004664, symSize: 0x50 }
  - { offsetInCU: 0x13A90, offset: 0x13A90, size: 0x8, addend: 0x0, symName: __ZN8hittableC2Ev, symObjAddr: 0x3708, symBinAddr: 0x1000046B4, symSize: 0x24 }
  - { offsetInCU: 0x13ABC, offset: 0x13ABC, size: 0x8, addend: 0x0, symName: __ZNSt3__16vectorINS_10shared_ptrI8hittableEENS_9allocatorIS3_EEEC1B8ne180100Ev, symObjAddr: 0x372C, symBinAddr: 0x1000046D8, symSize: 0x2C }
  - { offsetInCU: 0x13AE6, offset: 0x13AE6, size: 0x8, addend: 0x0, symName: __ZN13hittable_listD0Ev, symObjAddr: 0x3758, symBinAddr: 0x100004704, symSize: 0x30 }
  - { offsetInCU: 0x13B12, offset: 0x13B12, size: 0x8, addend: 0x0, symName: __ZNK13hittable_list3hitERK3ray8intervalR10hit_record, symObjAddr: 0x3788, symBinAddr: 0x100004734, symSize: 0x170 }
  - { offsetInCU: 0x13BDC, offset: 0x13BDC, size: 0x8, addend: 0x0, symName: __ZNK8hittable4minsEv, symObjAddr: 0x38F8, symBinAddr: 0x1000048A4, symSize: 0x30 }
  - { offsetInCU: 0x13C02, offset: 0x13C02, size: 0x8, addend: 0x0, symName: __ZNK8hittable4maxsEv, symObjAddr: 0x3928, symBinAddr: 0x1000048D4, symSize: 0x30 }
  - { offsetInCU: 0x13C28, offset: 0x13C28, size: 0x8, addend: 0x0, symName: __ZNK8hittable4centEv, symObjAddr: 0x3958, symBinAddr: 0x100004904, symSize: 0x30 }
  - { offsetInCU: 0x13C4E, offset: 0x13C4E, size: 0x8, addend: 0x0, symName: __ZN8hittableD1Ev, symObjAddr: 0x3988, symBinAddr: 0x100004934, symSize: 0x14 }
  - { offsetInCU: 0x13C78, offset: 0x13C78, size: 0x8, addend: 0x0, symName: __ZN8hittableD0Ev, symObjAddr: 0x399C, symBinAddr: 0x100004948, symSize: 0xC }
  - { offsetInCU: 0x13CA2, offset: 0x13CA2, size: 0x8, addend: 0x0, symName: __ZNSt3__16vectorINS_10shared_ptrI8hittableEENS_9allocatorIS3_EEEC2B8ne180100Ev, symObjAddr: 0x39A8, symBinAddr: 0x100004954, symSize: 0x4C }
  - { offsetInCU: 0x13CD8, offset: 0x13CD8, size: 0x8, addend: 0x0, symName: __ZNSt3__117__compressed_pairIPNS_10shared_ptrI8hittableEENS_9allocatorIS3_EEEC1B8ne180100IDnNS_18__default_init_tagEEEOT_OT0_, symObjAddr: 0x39F4, symBinAddr: 0x1000049A0, symSize: 0x3C }
  - { offsetInCU: 0x13D30, offset: 0x13D30, size: 0x8, addend: 0x0, symName: __ZNSt3__117__compressed_pairIPNS_10shared_ptrI8hittableEENS_9allocatorIS3_EEEC2B8ne180100IDnNS_18__default_init_tagEEEOT_OT0_, symObjAddr: 0x3A3C, symBinAddr: 0x1000049E8, symSize: 0x40 }
  - { offsetInCU: 0x13D88, offset: 0x13D88, size: 0x8, addend: 0x0, symName: __ZNSt3__122__compressed_pair_elemIPNS_10shared_ptrI8hittableEELi0ELb0EEC2B8ne180100IDnvEEOT_, symObjAddr: 0x3A7C, symBinAddr: 0x100004A28, symSize: 0x1C }
  - { offsetInCU: 0x13DCA, offset: 0x13DCA, size: 0x8, addend: 0x0, symName: __ZNSt3__122__compressed_pair_elemINS_9allocatorINS_10shared_ptrI8hittableEEEELi1ELb1EEC2B8ne180100ENS_18__default_init_tagE, symObjAddr: 0x3A98, symBinAddr: 0x100004A44, symSize: 0x2C }
  - { offsetInCU: 0x13DFF, offset: 0x13DFF, size: 0x8, addend: 0x0, symName: __ZNSt3__19allocatorINS_10shared_ptrI8hittableEEEC2B8ne180100Ev, symObjAddr: 0x3AC4, symBinAddr: 0x100004A70, symSize: 0x2C }
  - { offsetInCU: 0x13E29, offset: 0x13E29, size: 0x8, addend: 0x0, symName: __ZNSt3__116__non_trivial_ifILb1ENS_9allocatorINS_10shared_ptrI8hittableEEEEEC2B8ne180100Ev, symObjAddr: 0x3AF0, symBinAddr: 0x100004A9C, symSize: 0x14 }
  - { offsetInCU: 0x13E53, offset: 0x13E53, size: 0x8, addend: 0x0, symName: __ZN10hit_recordC1Ev, symObjAddr: 0x3B04, symBinAddr: 0x100004AB0, symSize: 0x2C }
  - { offsetInCU: 0x13E7F, offset: 0x13E7F, size: 0x8, addend: 0x0, symName: __ZNKSt3__16vectorINS_10shared_ptrI8hittableEENS_9allocatorIS3_EEE5beginB8ne180100Ev, symObjAddr: 0x3B30, symBinAddr: 0x100004ADC, symSize: 0x30 }
  - { offsetInCU: 0x13EA7, offset: 0x13EA7, size: 0x8, addend: 0x0, symName: __ZNKSt3__16vectorINS_10shared_ptrI8hittableEENS_9allocatorIS3_EEE3endB8ne180100Ev, symObjAddr: 0x3B60, symBinAddr: 0x100004B0C, symSize: 0x30 }
  - { offsetInCU: 0x13ECF, offset: 0x13ECF, size: 0x8, addend: 0x0, symName: __ZNKSt3__111__wrap_iterIPKNS_10shared_ptrI8hittableEEEdeB8ne180100Ev, symObjAddr: 0x3BC4, symBinAddr: 0x100004B70, symSize: 0x18 }
  - { offsetInCU: 0x13EF5, offset: 0x13EF5, size: 0x8, addend: 0x0, symName: __ZNKSt3__110shared_ptrI8hittableEptB8ne180100Ev, symObjAddr: 0x3BDC, symBinAddr: 0x100004B88, symSize: 0x18 }
  - { offsetInCU: 0x13F1B, offset: 0x13F1B, size: 0x8, addend: 0x0, symName: __ZN10hit_recordaSERKS_, symObjAddr: 0x3BF4, symBinAddr: 0x100004BA0, symSize: 0x60 }
  - { offsetInCU: 0x13F4C, offset: 0x13F4C, size: 0x8, addend: 0x0, symName: __ZNSt3__111__wrap_iterIPKNS_10shared_ptrI8hittableEEEppB8ne180100Ev, symObjAddr: 0x3C54, symBinAddr: 0x100004C00, symSize: 0x20 }
  - { offsetInCU: 0x13F72, offset: 0x13F72, size: 0x8, addend: 0x0, symName: __ZN10hit_recordD1Ev, symObjAddr: 0x3C74, symBinAddr: 0x100004C20, symSize: 0x2C }
  - { offsetInCU: 0x13F9E, offset: 0x13F9E, size: 0x8, addend: 0x0, symName: __ZN10hit_recordC2Ev, symObjAddr: 0x3CA0, symBinAddr: 0x100004C4C, symSize: 0x44 }
  - { offsetInCU: 0x13FCA, offset: 0x13FCA, size: 0x8, addend: 0x0, symName: __ZN4vec3C1Ev, symObjAddr: 0x3CE4, symBinAddr: 0x100004C90, symSize: 0x2C }
  - { offsetInCU: 0x13FF4, offset: 0x13FF4, size: 0x8, addend: 0x0, symName: __ZN4vec3C2Ev, symObjAddr: 0x3D10, symBinAddr: 0x100004CBC, symSize: 0x38 }
  - { offsetInCU: 0x1401E, offset: 0x1401E, size: 0x8, addend: 0x0, symName: __ZNKSt3__16vectorINS_10shared_ptrI8hittableEENS_9allocatorIS3_EEE11__make_iterB8ne180100EPKS3_, symObjAddr: 0x3D48, symBinAddr: 0x100004CF4, symSize: 0x30 }
  - { offsetInCU: 0x14053, offset: 0x14053, size: 0x8, addend: 0x0, symName: __ZNSt3__111__wrap_iterIPKNS_10shared_ptrI8hittableEEEC1B8ne180100ES5_, symObjAddr: 0x3D78, symBinAddr: 0x100004D24, symSize: 0x34 }
  - { offsetInCU: 0x1408B, offset: 0x1408B, size: 0x8, addend: 0x0, symName: __ZNSt3__111__wrap_iterIPKNS_10shared_ptrI8hittableEEEC2B8ne180100ES5_, symObjAddr: 0x3DAC, symBinAddr: 0x100004D58, symSize: 0x20 }
  - { offsetInCU: 0x140C3, offset: 0x140C3, size: 0x8, addend: 0x0, symName: __ZNKSt3__111__wrap_iterIPKNS_10shared_ptrI8hittableEEE4baseB8ne180100Ev, symObjAddr: 0x3E14, symBinAddr: 0x100004DC0, symSize: 0x18 }
  - { offsetInCU: 0x140E9, offset: 0x140E9, size: 0x8, addend: 0x0, symName: __ZNSt3__110shared_ptrI8materialEaSB8ne180100ERKS2_, symObjAddr: 0x3E2C, symBinAddr: 0x100004DD8, symSize: 0x50 }
  - { offsetInCU: 0x1411E, offset: 0x1411E, size: 0x8, addend: 0x0, symName: __ZNSt3__110shared_ptrI8materialEC1B8ne180100ERKS2_, symObjAddr: 0x3E7C, symBinAddr: 0x100004E28, symSize: 0x34 }
  - { offsetInCU: 0x14157, offset: 0x14157, size: 0x8, addend: 0x0, symName: __ZNSt3__110shared_ptrI8materialE4swapB8ne180100ERS2_, symObjAddr: 0x3EB0, symBinAddr: 0x100004E5C, symSize: 0x44 }
  - { offsetInCU: 0x1418C, offset: 0x1418C, size: 0x8, addend: 0x0, symName: __ZNSt3__110shared_ptrI8materialEC2B8ne180100ERKS2_, symObjAddr: 0x3EF4, symBinAddr: 0x100004EA0, symSize: 0x70 }
  - { offsetInCU: 0x141C5, offset: 0x141C5, size: 0x8, addend: 0x0, symName: __ZNSt3__119__shared_weak_count12__add_sharedB8ne180100Ev, symObjAddr: 0x3F64, symBinAddr: 0x100004F10, symSize: 0x24 }
  - { offsetInCU: 0x141EB, offset: 0x141EB, size: 0x8, addend: 0x0, symName: __ZNSt3__114__shared_count12__add_sharedB8ne180100Ev, symObjAddr: 0x3F88, symBinAddr: 0x100004F34, symSize: 0x28 }
  - { offsetInCU: 0x14211, offset: 0x14211, size: 0x8, addend: 0x0, symName: __ZN10hit_recordD2Ev, symObjAddr: 0x4058, symBinAddr: 0x100005004, symSize: 0x30 }
  - { offsetInCU: 0x1423D, offset: 0x1423D, size: 0x8, addend: 0x0, symName: __ZN4vec3C2Eddd, symObjAddr: 0x4088, symBinAddr: 0x100005034, symSize: 0x38 }
  - { offsetInCU: 0x14291, offset: 0x14291, size: 0x8, addend: 0x0, symName: __ZNSt3__16vectorINS_10shared_ptrI8hittableEENS_9allocatorIS3_EEE9push_backB8ne180100ERKS3_, symObjAddr: 0x40C0, symBinAddr: 0x10000506C, symSize: 0x90 }
  - { offsetInCU: 0x142D7, offset: 0x142D7, size: 0x8, addend: 0x0, symName: __ZNSt3__16vectorINS_10shared_ptrI8hittableEENS_9allocatorIS3_EEE9__end_capB8ne180100Ev, symObjAddr: 0x4150, symBinAddr: 0x1000050FC, symSize: 0x28 }
  - { offsetInCU: 0x142FD, offset: 0x142FD, size: 0x8, addend: 0x0, symName: __ZNSt3__16vectorINS_10shared_ptrI8hittableEENS_9allocatorIS3_EEE22__construct_one_at_endB8ne180100IJRKS3_EEEvDpOT_, symObjAddr: 0x4178, symBinAddr: 0x100005124, symSize: 0x90 }
  - { offsetInCU: 0x1434C, offset: 0x1434C, size: 0x8, addend: 0x0, symName: __ZNSt3__16vectorINS_10shared_ptrI8hittableEENS_9allocatorIS3_EEE21__push_back_slow_pathIRKS3_EEPS3_OT_, symObjAddr: 0x4208, symBinAddr: 0x1000051B4, symSize: 0xE8 }
  - { offsetInCU: 0x143AA, offset: 0x143AA, size: 0x8, addend: 0x0, symName: __ZNSt3__117__compressed_pairIPNS_10shared_ptrI8hittableEENS_9allocatorIS3_EEE5firstB8ne180100Ev, symObjAddr: 0x42F0, symBinAddr: 0x10000529C, symSize: 0x24 }
  - { offsetInCU: 0x143D0, offset: 0x143D0, size: 0x8, addend: 0x0, symName: __ZNSt3__122__compressed_pair_elemIPNS_10shared_ptrI8hittableEELi0ELb0EE5__getB8ne180100Ev, symObjAddr: 0x4314, symBinAddr: 0x1000052C0, symSize: 0x14 }
  - { offsetInCU: 0x1440F, offset: 0x1440F, size: 0x8, addend: 0x0, symName: __ZNSt3__16vectorINS_10shared_ptrI8hittableEENS_9allocatorIS3_EEE21_ConstructTransactionC1B8ne180100ERS6_m, symObjAddr: 0x4328, symBinAddr: 0x1000052D4, symSize: 0x3C }
  - { offsetInCU: 0x14457, offset: 0x14457, size: 0x8, addend: 0x0, symName: __ZNSt3__116allocator_traitsINS_9allocatorINS_10shared_ptrI8hittableEEEEE9constructB8ne180100IS4_JRKS4_EvEEvRS5_PT_DpOT0_, symObjAddr: 0x4364, symBinAddr: 0x100005310, symSize: 0x34 }
  - { offsetInCU: 0x144AE, offset: 0x144AE, size: 0x8, addend: 0x0, symName: __ZNSt3__16vectorINS_10shared_ptrI8hittableEENS_9allocatorIS3_EEE7__allocB8ne180100Ev, symObjAddr: 0x4398, symBinAddr: 0x100005344, symSize: 0x28 }
  - { offsetInCU: 0x144D4, offset: 0x144D4, size: 0x8, addend: 0x0, symName: __ZNSt3__16vectorINS_10shared_ptrI8hittableEENS_9allocatorIS3_EEE21_ConstructTransactionD1B8ne180100Ev, symObjAddr: 0x43D4, symBinAddr: 0x100005380, symSize: 0x2C }
  - { offsetInCU: 0x144FE, offset: 0x144FE, size: 0x8, addend: 0x0, symName: __ZNSt3__16vectorINS_10shared_ptrI8hittableEENS_9allocatorIS3_EEE21_ConstructTransactionC2B8ne180100ERS6_m, symObjAddr: 0x4400, symBinAddr: 0x1000053AC, symSize: 0x44 }
  - { offsetInCU: 0x14546, offset: 0x14546, size: 0x8, addend: 0x0, symName: __ZNSt3__19allocatorINS_10shared_ptrI8hittableEEE9constructB8ne180100IS3_JRKS3_EEEvPT_DpOT0_, symObjAddr: 0x4444, symBinAddr: 0x1000053F0, symSize: 0x30 }
  - { offsetInCU: 0x1459C, offset: 0x1459C, size: 0x8, addend: 0x0, symName: __ZNSt3__110shared_ptrI8hittableEC1B8ne180100ERKS2_, symObjAddr: 0x4474, symBinAddr: 0x100005420, symSize: 0x34 }
  - { offsetInCU: 0x145D5, offset: 0x145D5, size: 0x8, addend: 0x0, symName: __ZNSt3__110shared_ptrI8hittableEC2B8ne180100ERKS2_, symObjAddr: 0x44A8, symBinAddr: 0x100005454, symSize: 0x70 }
  - { offsetInCU: 0x1460E, offset: 0x1460E, size: 0x8, addend: 0x0, symName: __ZNSt3__117__compressed_pairIPNS_10shared_ptrI8hittableEENS_9allocatorIS3_EEE6secondB8ne180100Ev, symObjAddr: 0x4518, symBinAddr: 0x1000054C4, symSize: 0x24 }
  - { offsetInCU: 0x14634, offset: 0x14634, size: 0x8, addend: 0x0, symName: __ZNSt3__122__compressed_pair_elemINS_9allocatorINS_10shared_ptrI8hittableEEEELi1ELb1EE5__getB8ne180100Ev, symObjAddr: 0x453C, symBinAddr: 0x1000054E8, symSize: 0x14 }
  - { offsetInCU: 0x1465A, offset: 0x1465A, size: 0x8, addend: 0x0, symName: __ZNSt3__16vectorINS_10shared_ptrI8hittableEENS_9allocatorIS3_EEE21_ConstructTransactionD2B8ne180100Ev, symObjAddr: 0x4550, symBinAddr: 0x1000054FC, symSize: 0x20 }
  - { offsetInCU: 0x14684, offset: 0x14684, size: 0x8, addend: 0x0, symName: __ZNKSt3__16vectorINS_10shared_ptrI8hittableEENS_9allocatorIS3_EEE11__recommendB8ne180100Em, symObjAddr: 0x4570, symBinAddr: 0x10000551C, symSize: 0xB4 }
  - { offsetInCU: 0x146D9, offset: 0x146D9, size: 0x8, addend: 0x0, symName: __ZNSt3__114__split_bufferINS_10shared_ptrI8hittableEERNS_9allocatorIS3_EEEC1EmmS6_, symObjAddr: 0x4624, symBinAddr: 0x1000055D0, symSize: 0x44 }
  - { offsetInCU: 0x1472F, offset: 0x1472F, size: 0x8, addend: 0x0, symName: __ZNSt3__114__split_bufferINS_10shared_ptrI8hittableEERNS_9allocatorIS3_EEED1Ev, symObjAddr: 0x4778, symBinAddr: 0x100005724, symSize: 0x2C }
  - { offsetInCU: 0x1475B, offset: 0x1475B, size: 0x8, addend: 0x0, symName: __ZNKSt3__16vectorINS_10shared_ptrI8hittableEENS_9allocatorIS3_EEE8max_sizeEv, symObjAddr: 0x47A4, symBinAddr: 0x100005750, symSize: 0x60 }
  - { offsetInCU: 0x14783, offset: 0x14783, size: 0x8, addend: 0x0, symName: __ZNKSt3__16vectorINS_10shared_ptrI8hittableEENS_9allocatorIS3_EEE20__throw_length_errorB8ne180100Ev, symObjAddr: 0x4804, symBinAddr: 0x1000057B0, symSize: 0x1C }
  - { offsetInCU: 0x147A9, offset: 0x147A9, size: 0x8, addend: 0x0, symName: __ZNKSt3__16vectorINS_10shared_ptrI8hittableEENS_9allocatorIS3_EEE8capacityB8ne180100Ev, symObjAddr: 0x4820, symBinAddr: 0x1000057CC, symSize: 0x40 }
  - { offsetInCU: 0x147D9, offset: 0x147D9, size: 0x8, addend: 0x0, symName: __ZNSt3__116allocator_traitsINS_9allocatorINS_10shared_ptrI8hittableEEEEE8max_sizeB8ne180100IS5_vEEmRKS5_, symObjAddr: 0x48B8, symBinAddr: 0x100005864, symSize: 0x24 }
  - { offsetInCU: 0x14807, offset: 0x14807, size: 0x8, addend: 0x0, symName: __ZNKSt3__16vectorINS_10shared_ptrI8hittableEENS_9allocatorIS3_EEE7__allocB8ne180100Ev, symObjAddr: 0x48DC, symBinAddr: 0x100005888, symSize: 0x28 }
  - { offsetInCU: 0x1482D, offset: 0x1482D, size: 0x8, addend: 0x0, symName: __ZNSt3__114numeric_limitsIlE3maxB8ne180100Ev, symObjAddr: 0x4904, symBinAddr: 0x1000058B0, symSize: 0x14 }
  - { offsetInCU: 0x14855, offset: 0x14855, size: 0x8, addend: 0x0, symName: __ZNKSt3__16__lessIvvEclB8ne180100ImmEEbRKT_RKT0_, symObjAddr: 0x496C, symBinAddr: 0x100005918, symSize: 0x34 }
  - { offsetInCU: 0x148A9, offset: 0x148A9, size: 0x8, addend: 0x0, symName: __ZNKSt3__19allocatorINS_10shared_ptrI8hittableEEE8max_sizeB8ne180100Ev, symObjAddr: 0x49A0, symBinAddr: 0x10000594C, symSize: 0x14 }
  - { offsetInCU: 0x148CF, offset: 0x148CF, size: 0x8, addend: 0x0, symName: __ZNKSt3__117__compressed_pairIPNS_10shared_ptrI8hittableEENS_9allocatorIS3_EEE6secondB8ne180100Ev, symObjAddr: 0x49B4, symBinAddr: 0x100005960, symSize: 0x24 }
  - { offsetInCU: 0x148F5, offset: 0x148F5, size: 0x8, addend: 0x0, symName: __ZNKSt3__122__compressed_pair_elemINS_9allocatorINS_10shared_ptrI8hittableEEEELi1ELb1EE5__getB8ne180100Ev, symObjAddr: 0x49D8, symBinAddr: 0x100005984, symSize: 0x14 }
  - { offsetInCU: 0x1491B, offset: 0x1491B, size: 0x8, addend: 0x0, symName: __ZNSt3__123__libcpp_numeric_limitsIlLb1EE3maxB8ne180100Ev, symObjAddr: 0x49EC, symBinAddr: 0x100005998, symSize: 0x8 }
  - { offsetInCU: 0x1492F, offset: 0x1492F, size: 0x8, addend: 0x0, symName: __ZNSt12length_errorC1B8ne180100EPKc, symObjAddr: 0x4A58, symBinAddr: 0x100005A04, symSize: 0x34 }
  - { offsetInCU: 0x14967, offset: 0x14967, size: 0x8, addend: 0x0, symName: __ZNSt12length_errorC2B8ne180100EPKc, symObjAddr: 0x4A8C, symBinAddr: 0x100005A38, symSize: 0x4C }
  - { offsetInCU: 0x1499F, offset: 0x1499F, size: 0x8, addend: 0x0, symName: __ZNKSt3__16vectorINS_10shared_ptrI8hittableEENS_9allocatorIS3_EEE9__end_capB8ne180100Ev, symObjAddr: 0x4AD8, symBinAddr: 0x100005A84, symSize: 0x28 }
  - { offsetInCU: 0x149C5, offset: 0x149C5, size: 0x8, addend: 0x0, symName: __ZNKSt3__117__compressed_pairIPNS_10shared_ptrI8hittableEENS_9allocatorIS3_EEE5firstB8ne180100Ev, symObjAddr: 0x4B00, symBinAddr: 0x100005AAC, symSize: 0x24 }
  - { offsetInCU: 0x149EB, offset: 0x149EB, size: 0x8, addend: 0x0, symName: __ZNKSt3__122__compressed_pair_elemIPNS_10shared_ptrI8hittableEELi0ELb0EE5__getB8ne180100Ev, symObjAddr: 0x4B24, symBinAddr: 0x100005AD0, symSize: 0x14 }
  - { offsetInCU: 0x14A11, offset: 0x14A11, size: 0x8, addend: 0x0, symName: __ZNSt3__114__split_bufferINS_10shared_ptrI8hittableEERNS_9allocatorIS3_EEEC2EmmS6_, symObjAddr: 0x4B8C, symBinAddr: 0x100005B38, symSize: 0xD4 }
  - { offsetInCU: 0x14A84, offset: 0x14A84, size: 0x8, addend: 0x0, symName: __ZNSt3__117__compressed_pairIPNS_10shared_ptrI8hittableEERNS_9allocatorIS3_EEEC1B8ne180100IDnS7_EEOT_OT0_, symObjAddr: 0x4C60, symBinAddr: 0x100005C0C, symSize: 0x3C }
  - { offsetInCU: 0x14ADC, offset: 0x14ADC, size: 0x8, addend: 0x0, symName: __ZNSt3__114__split_bufferINS_10shared_ptrI8hittableEERNS_9allocatorIS3_EEE7__allocB8ne180100Ev, symObjAddr: 0x4CDC, symBinAddr: 0x100005C88, symSize: 0x28 }
  - { offsetInCU: 0x14B02, offset: 0x14B02, size: 0x8, addend: 0x0, symName: __ZNSt3__114__split_bufferINS_10shared_ptrI8hittableEERNS_9allocatorIS3_EEE9__end_capB8ne180100Ev, symObjAddr: 0x4D04, symBinAddr: 0x100005CB0, symSize: 0x28 }
  - { offsetInCU: 0x14B28, offset: 0x14B28, size: 0x8, addend: 0x0, symName: __ZNSt3__117__compressed_pairIPNS_10shared_ptrI8hittableEERNS_9allocatorIS3_EEEC2B8ne180100IDnS7_EEOT_OT0_, symObjAddr: 0x4D2C, symBinAddr: 0x100005CD8, symSize: 0x48 }
  - { offsetInCU: 0x14B80, offset: 0x14B80, size: 0x8, addend: 0x0, symName: __ZNSt3__122__compressed_pair_elemIRNS_9allocatorINS_10shared_ptrI8hittableEEEELi1ELb0EEC2B8ne180100IS6_vEEOT_, symObjAddr: 0x4D74, symBinAddr: 0x100005D20, symSize: 0x20 }
  - { offsetInCU: 0x14BC2, offset: 0x14BC2, size: 0x8, addend: 0x0, symName: __ZNSt3__19allocatorINS_10shared_ptrI8hittableEEE8allocateB8ne180100Em, symObjAddr: 0x4D94, symBinAddr: 0x100005D40, symSize: 0x58 }
  - { offsetInCU: 0x14BF6, offset: 0x14BF6, size: 0x8, addend: 0x0, symName: __ZNSt3__117__compressed_pairIPNS_10shared_ptrI8hittableEERNS_9allocatorIS3_EEE6secondB8ne180100Ev, symObjAddr: 0x4E6C, symBinAddr: 0x100005E18, symSize: 0x28 }
  - { offsetInCU: 0x14C1C, offset: 0x14C1C, size: 0x8, addend: 0x0, symName: __ZNSt3__122__compressed_pair_elemIRNS_9allocatorINS_10shared_ptrI8hittableEEEELi1ELb0EE5__getB8ne180100Ev, symObjAddr: 0x4E94, symBinAddr: 0x100005E40, symSize: 0x18 }
  - { offsetInCU: 0x14C42, offset: 0x14C42, size: 0x8, addend: 0x0, symName: __ZNSt3__117__compressed_pairIPNS_10shared_ptrI8hittableEERNS_9allocatorIS3_EEE5firstB8ne180100Ev, symObjAddr: 0x4EAC, symBinAddr: 0x100005E58, symSize: 0x24 }
  - { offsetInCU: 0x14C68, offset: 0x14C68, size: 0x8, addend: 0x0, symName: __ZNKSt3__16vectorINS_10shared_ptrI8hittableEENS_9allocatorIS3_EEE17__annotate_deleteB8ne180100Ev, symObjAddr: 0x4ED0, symBinAddr: 0x100005E7C, symSize: 0x10 }
  - { offsetInCU: 0x14C8E, offset: 0x14C8E, size: 0x8, addend: 0x0, symName: __ZNSt3__116reverse_iteratorIPNS_10shared_ptrI8hittableEEEC1B8ne180100ES4_, symObjAddr: 0x500C, symBinAddr: 0x100005FB8, symSize: 0x34 }
  - { offsetInCU: 0x14CC6, offset: 0x14CC6, size: 0x8, addend: 0x0, symName: __ZNKSt3__116reverse_iteratorIPNS_10shared_ptrI8hittableEEE4baseB8ne180100Ev, symObjAddr: 0x5040, symBinAddr: 0x100005FEC, symSize: 0x18 }
  - { offsetInCU: 0x14CEC, offset: 0x14CEC, size: 0x8, addend: 0x0, symName: __ZNKSt3__16vectorINS_10shared_ptrI8hittableEENS_9allocatorIS3_EEE14__annotate_newB8ne180100Em, symObjAddr: 0x5094, symBinAddr: 0x100006040, symSize: 0x14 }
  - { offsetInCU: 0x14D21, offset: 0x14D21, size: 0x8, addend: 0x0, symName: __ZNSt3__129_AllocatorDestroyRangeReverseINS_9allocatorINS_10shared_ptrI8hittableEEEENS_16reverse_iteratorIPS4_EEEC1B8ne180100ERS5_RS8_SB_, symObjAddr: 0x50F4, symBinAddr: 0x1000060A0, symSize: 0x44 }
  - { offsetInCU: 0x14D78, offset: 0x14D78, size: 0x8, addend: 0x0, symName: __ZNSt3__116allocator_traitsINS_9allocatorINS_10shared_ptrI8hittableEEEEE9constructB8ne180100IS4_JS4_EvEEvRS5_PT_DpOT0_, symObjAddr: 0x5180, symBinAddr: 0x10000612C, symSize: 0x34 }
  - { offsetInCU: 0x14DCF, offset: 0x14DCF, size: 0x8, addend: 0x0, symName: __ZNKSt3__116reverse_iteratorIPNS_10shared_ptrI8hittableEEEdeB8ne180100Ev, symObjAddr: 0x51D8, symBinAddr: 0x100006184, symSize: 0x28 }
  - { offsetInCU: 0x14E03, offset: 0x14E03, size: 0x8, addend: 0x0, symName: __ZNSt3__116reverse_iteratorIPNS_10shared_ptrI8hittableEEEppB8ne180100Ev, symObjAddr: 0x5200, symBinAddr: 0x1000061AC, symSize: 0x20 }
  - { offsetInCU: 0x14E29, offset: 0x14E29, size: 0x8, addend: 0x0, symName: __ZNSt3__128__exception_guard_exceptionsINS_29_AllocatorDestroyRangeReverseINS_9allocatorINS_10shared_ptrI8hittableEEEENS_16reverse_iteratorIPS5_EEEEE10__completeB8ne180100Ev, symObjAddr: 0x5220, symBinAddr: 0x1000061CC, symSize: 0x1C }
  - { offsetInCU: 0x14E4F, offset: 0x14E4F, size: 0x8, addend: 0x0, symName: __ZNSt3__128__exception_guard_exceptionsINS_29_AllocatorDestroyRangeReverseINS_9allocatorINS_10shared_ptrI8hittableEEEENS_16reverse_iteratorIPS5_EEEEED1B8ne180100Ev, symObjAddr: 0x523C, symBinAddr: 0x1000061E8, symSize: 0x2C }
  - { offsetInCU: 0x14E79, offset: 0x14E79, size: 0x8, addend: 0x0, symName: __ZNSt3__128__exception_guard_exceptionsINS_29_AllocatorDestroyRangeReverseINS_9allocatorINS_10shared_ptrI8hittableEEEENS_16reverse_iteratorIPS5_EEEEEC1B8ne180100ESA_, symObjAddr: 0x5268, symBinAddr: 0x100006214, symSize: 0x34 }
  - { offsetInCU: 0x14EB2, offset: 0x14EB2, size: 0x8, addend: 0x0, symName: __ZNSt3__128__exception_guard_exceptionsINS_29_AllocatorDestroyRangeReverseINS_9allocatorINS_10shared_ptrI8hittableEEEENS_16reverse_iteratorIPS5_EEEEEC2B8ne180100ESA_, symObjAddr: 0x529C, symBinAddr: 0x100006248, symSize: 0x30 }
  - { offsetInCU: 0x14EEB, offset: 0x14EEB, size: 0x8, addend: 0x0, symName: __ZNSt3__129_AllocatorDestroyRangeReverseINS_9allocatorINS_10shared_ptrI8hittableEEEENS_16reverse_iteratorIPS4_EEEC2B8ne180100ERS5_RS8_SB_, symObjAddr: 0x52CC, symBinAddr: 0x100006278, symSize: 0x38 }
  - { offsetInCU: 0x14F42, offset: 0x14F42, size: 0x8, addend: 0x0, symName: __ZNSt3__19allocatorINS_10shared_ptrI8hittableEEE9constructB8ne180100IS3_JS3_EEEvPT_DpOT0_, symObjAddr: 0x5304, symBinAddr: 0x1000062B0, symSize: 0x30 }
  - { offsetInCU: 0x14F98, offset: 0x14F98, size: 0x8, addend: 0x0, symName: __ZNSt3__110shared_ptrI8hittableEC1B8ne180100EOS2_, symObjAddr: 0x5334, symBinAddr: 0x1000062E0, symSize: 0x34 }
  - { offsetInCU: 0x14FD1, offset: 0x14FD1, size: 0x8, addend: 0x0, symName: __ZNSt3__110shared_ptrI8hittableEC2B8ne180100EOS2_, symObjAddr: 0x5368, symBinAddr: 0x100006314, symSize: 0x40 }
  - { offsetInCU: 0x1500F, offset: 0x1500F, size: 0x8, addend: 0x0, symName: __ZNSt3__119__to_address_helperINS_16reverse_iteratorIPNS_10shared_ptrI8hittableEEEEvE6__callB8ne180100ERKS6_, symObjAddr: 0x53A8, symBinAddr: 0x100006354, symSize: 0x38 }
  - { offsetInCU: 0x15032, offset: 0x15032, size: 0x8, addend: 0x0, symName: __ZNKSt3__116reverse_iteratorIPNS_10shared_ptrI8hittableEEEptB8ne180100Ev, symObjAddr: 0x53E0, symBinAddr: 0x10000638C, symSize: 0x24 }
  - { offsetInCU: 0x15058, offset: 0x15058, size: 0x8, addend: 0x0, symName: __ZNSt3__128__exception_guard_exceptionsINS_29_AllocatorDestroyRangeReverseINS_9allocatorINS_10shared_ptrI8hittableEEEENS_16reverse_iteratorIPS5_EEEEED2B8ne180100Ev, symObjAddr: 0x5404, symBinAddr: 0x1000063B0, symSize: 0x50 }
  - { offsetInCU: 0x15082, offset: 0x15082, size: 0x8, addend: 0x0, symName: __ZNKSt3__129_AllocatorDestroyRangeReverseINS_9allocatorINS_10shared_ptrI8hittableEEEENS_16reverse_iteratorIPS4_EEEclB8ne180100Ev, symObjAddr: 0x5454, symBinAddr: 0x100006400, symSize: 0xB4 }
  - { offsetInCU: 0x150A9, offset: 0x150A9, size: 0x8, addend: 0x0, symName: __ZNSt3__116reverse_iteratorINS0_IPNS_10shared_ptrI8hittableEEEEEC1B8ne180100ES5_, symObjAddr: 0x5578, symBinAddr: 0x100006524, symSize: 0x3C }
  - { offsetInCU: 0x150E1, offset: 0x150E1, size: 0x8, addend: 0x0, symName: __ZNSt3__116allocator_traitsINS_9allocatorINS_10shared_ptrI8hittableEEEEE7destroyB8ne180100IS4_vEEvRS5_PT_, symObjAddr: 0x5614, symBinAddr: 0x1000065C0, symSize: 0x2C }
  - { offsetInCU: 0x1511E, offset: 0x1511E, size: 0x8, addend: 0x0, symName: __ZNSt3__116reverse_iteratorINS0_IPNS_10shared_ptrI8hittableEEEEEppB8ne180100Ev, symObjAddr: 0x5664, symBinAddr: 0x100006610, symSize: 0x30 }
  - { offsetInCU: 0x15144, offset: 0x15144, size: 0x8, addend: 0x0, symName: __ZNKSt3__116reverse_iteratorINS0_IPNS_10shared_ptrI8hittableEEEEE4baseB8ne180100Ev, symObjAddr: 0x5694, symBinAddr: 0x100006640, symSize: 0x24 }
  - { offsetInCU: 0x1516A, offset: 0x1516A, size: 0x8, addend: 0x0, symName: __ZNSt3__19allocatorINS_10shared_ptrI8hittableEEE7destroyB8ne180100EPS3_, symObjAddr: 0x56B8, symBinAddr: 0x100006664, symSize: 0x28 }
  - { offsetInCU: 0x151A3, offset: 0x151A3, size: 0x8, addend: 0x0, symName: __ZNSt3__119__to_address_helperINS_16reverse_iteratorINS1_IPNS_10shared_ptrI8hittableEEEEEEvE6__callB8ne180100ERKS7_, symObjAddr: 0x56E0, symBinAddr: 0x10000668C, symSize: 0x38 }
  - { offsetInCU: 0x151C6, offset: 0x151C6, size: 0x8, addend: 0x0, symName: __ZNKSt3__116reverse_iteratorINS0_IPNS_10shared_ptrI8hittableEEEEEptB8ne180100Ev, symObjAddr: 0x5718, symBinAddr: 0x1000066C4, symSize: 0x24 }
  - { offsetInCU: 0x151EC, offset: 0x151EC, size: 0x8, addend: 0x0, symName: __ZNKSt3__116reverse_iteratorINS0_IPNS_10shared_ptrI8hittableEEEEEdeB8ne180100Ev, symObjAddr: 0x573C, symBinAddr: 0x1000066E8, symSize: 0x34 }
  - { offsetInCU: 0x15220, offset: 0x15220, size: 0x8, addend: 0x0, symName: __ZNSt3__116reverse_iteratorIPNS_10shared_ptrI8hittableEEEmmB8ne180100Ev, symObjAddr: 0x5770, symBinAddr: 0x10000671C, symSize: 0x20 }
  - { offsetInCU: 0x15246, offset: 0x15246, size: 0x8, addend: 0x0, symName: __ZNSt3__116reverse_iteratorINS0_IPNS_10shared_ptrI8hittableEEEEEC2B8ne180100ES5_, symObjAddr: 0x5790, symBinAddr: 0x10000673C, symSize: 0x2C }
  - { offsetInCU: 0x1527E, offset: 0x1527E, size: 0x8, addend: 0x0, symName: __ZNSt3__116reverse_iteratorIPNS_10shared_ptrI8hittableEEEC2B8ne180100ES4_, symObjAddr: 0x57BC, symBinAddr: 0x100006768, symSize: 0x28 }
  - { offsetInCU: 0x152B6, offset: 0x152B6, size: 0x8, addend: 0x0, symName: __ZNSt3__114__split_bufferINS_10shared_ptrI8hittableEERNS_9allocatorIS3_EEED2Ev, symObjAddr: 0x57E4, symBinAddr: 0x100006790, symSize: 0x8C }
  - { offsetInCU: 0x152E2, offset: 0x152E2, size: 0x8, addend: 0x0, symName: __ZNSt3__114__split_bufferINS_10shared_ptrI8hittableEERNS_9allocatorIS3_EEE5clearB8ne180100Ev, symObjAddr: 0x5870, symBinAddr: 0x10000681C, symSize: 0x28 }
  - { offsetInCU: 0x15308, offset: 0x15308, size: 0x8, addend: 0x0, symName: __ZNSt3__116allocator_traitsINS_9allocatorINS_10shared_ptrI8hittableEEEEE10deallocateB8ne180100ERS5_PS4_m, symObjAddr: 0x5898, symBinAddr: 0x100006844, symSize: 0x34 }
  - { offsetInCU: 0x1534A, offset: 0x1534A, size: 0x8, addend: 0x0, symName: __ZNKSt3__114__split_bufferINS_10shared_ptrI8hittableEERNS_9allocatorIS3_EEE8capacityB8ne180100Ev, symObjAddr: 0x58CC, symBinAddr: 0x100006878, symSize: 0x40 }
  - { offsetInCU: 0x15370, offset: 0x15370, size: 0x8, addend: 0x0, symName: __ZNSt3__114__split_bufferINS_10shared_ptrI8hittableEERNS_9allocatorIS3_EEE17__destruct_at_endB8ne180100EPS3_, symObjAddr: 0x590C, symBinAddr: 0x1000068B8, symSize: 0x2C }
  - { offsetInCU: 0x153A4, offset: 0x153A4, size: 0x8, addend: 0x0, symName: __ZNSt3__114__split_bufferINS_10shared_ptrI8hittableEERNS_9allocatorIS3_EEE17__destruct_at_endB8ne180100EPS3_NS_17integral_constantIbLb0EEE, symObjAddr: 0x5938, symBinAddr: 0x1000068E4, symSize: 0x80 }
  - { offsetInCU: 0x153E5, offset: 0x153E5, size: 0x8, addend: 0x0, symName: __ZNSt3__19allocatorINS_10shared_ptrI8hittableEEE10deallocateB8ne180100EPS3_m, symObjAddr: 0x59B8, symBinAddr: 0x100006964, symSize: 0x40 }
  - { offsetInCU: 0x15427, offset: 0x15427, size: 0x8, addend: 0x0, symName: __ZNKSt3__114__split_bufferINS_10shared_ptrI8hittableEERNS_9allocatorIS3_EEE9__end_capB8ne180100Ev, symObjAddr: 0x5A74, symBinAddr: 0x100006A20, symSize: 0x28 }
  - { offsetInCU: 0x1544D, offset: 0x1544D, size: 0x8, addend: 0x0, symName: __ZNKSt3__117__compressed_pairIPNS_10shared_ptrI8hittableEERNS_9allocatorIS3_EEE5firstB8ne180100Ev, symObjAddr: 0x5A9C, symBinAddr: 0x100006A48, symSize: 0x24 }
  - { offsetInCU: 0x15473, offset: 0x15473, size: 0x8, addend: 0x0, symName: __ZNK4vec314length_squaredEv, symObjAddr: 0x5AC0, symBinAddr: 0x100006A6C, symSize: 0x38 }
  - { offsetInCU: 0x15499, offset: 0x15499, size: 0x8, addend: 0x0, symName: __ZNSt3__110shared_ptrI8materialEC2B8ne180100Ev, symObjAddr: 0x5AF8, symBinAddr: 0x100006AA4, symSize: 0x1C }
  - { offsetInCU: 0x154C3, offset: 0x154C3, size: 0x8, addend: 0x0, symName: __ZN8BVH_NodeC2ER13hittable_listii, symObjAddr: 0x5B14, symBinAddr: 0x100006AC0, symSize: 0x198 }
  - { offsetInCU: 0x1554F, offset: 0x1554F, size: 0x8, addend: 0x0, symName: __ZN4aabbC1Ev, symObjAddr: 0x5CAC, symBinAddr: 0x100006C58, symSize: 0x2C }
  - { offsetInCU: 0x15579, offset: 0x15579, size: 0x8, addend: 0x0, symName: __ZNSt3__16vectorINS_10shared_ptrI8hittableEENS_9allocatorIS3_EEEixB8ne180100Em, symObjAddr: 0x5D04, symBinAddr: 0x100006CB0, symSize: 0x24 }
  - { offsetInCU: 0x155B0, offset: 0x155B0, size: 0x8, addend: 0x0, symName: __ZN4vec3ixEi, symObjAddr: 0x5D28, symBinAddr: 0x100006CD4, symSize: 0x20 }
  - { offsetInCU: 0x155E4, offset: 0x155E4, size: 0x8, addend: 0x0, symName: __ZN4aabbC2Ev, symObjAddr: 0x5D74, symBinAddr: 0x100006D20, symSize: 0x68 }
  - { offsetInCU: 0x1560E, offset: 0x1560E, size: 0x8, addend: 0x0, symName: __ZN8intervalC1Ev, symObjAddr: 0x5DDC, symBinAddr: 0x100006D88, symSize: 0x2C }
  - { offsetInCU: 0x15638, offset: 0x15638, size: 0x8, addend: 0x0, symName: __ZN8intervalC2Ev, symObjAddr: 0x5E08, symBinAddr: 0x100006DB4, symSize: 0x2C }
  - { offsetInCU: 0x15667, offset: 0x15667, size: 0x8, addend: 0x0, symName: __ZNKSt3__16__lessIvvEclB8ne180100IddEEbRKT_RKT0_, symObjAddr: 0x5E88, symBinAddr: 0x100006E34, symSize: 0x34 }
  - { offsetInCU: 0x156BB, offset: 0x156BB, size: 0x8, addend: 0x0, symName: __ZN6cameraC2Ev, symObjAddr: 0x5F10, symBinAddr: 0x100006EBC, symSize: 0x118 }
  - { offsetInCU: 0x156E7, offset: 0x156E7, size: 0x8, addend: 0x0, symName: __ZN6camera10initializeEv, symObjAddr: 0x6028, symBinAddr: 0x100006FD4, symSize: 0x478 }
  - { offsetInCU: 0x15781, offset: 0x15781, size: 0x8, addend: 0x0, symName: __ZNSt3__113basic_ostreamIcNS_11char_traitsIcEEElsB8ne180100EPFRS3_S4_E, symObjAddr: 0x64E8, symBinAddr: 0x100007494, symSize: 0x2C }
  - { offsetInCU: 0x157B5, offset: 0x157B5, size: 0x8, addend: 0x0, symName: __ZNK6camera7get_rayEii, symObjAddr: 0x653C, symBinAddr: 0x1000074E8, symSize: 0x17C }
  - { offsetInCU: 0x15831, offset: 0x15831, size: 0x8, addend: 0x0, symName: __ZNK6camera9ray_colorERK3rayiRK8hittable, symObjAddr: 0x66B8, symBinAddr: 0x100007664, symSize: 0x264 }
  - { offsetInCU: 0x158C4, offset: 0x158C4, size: 0x8, addend: 0x0, symName: __ZN4vec3pLERKS_, symObjAddr: 0x691C, symBinAddr: 0x1000078C8, symSize: 0x54 }
  - { offsetInCU: 0x158F7, offset: 0x158F7, size: 0x8, addend: 0x0, symName: __ZmldRK4vec3, symObjAddr: 0x6970, symBinAddr: 0x10000791C, symSize: 0x64 }
  - { offsetInCU: 0x15931, offset: 0x15931, size: 0x8, addend: 0x0, symName: __Z18degrees_to_radiansd, symObjAddr: 0x69D4, symBinAddr: 0x100007980, symSize: 0x2C }
  - { offsetInCU: 0x1595D, offset: 0x1595D, size: 0x8, addend: 0x0, symName: __Z11unit_vectorRK4vec3, symObjAddr: 0x6A00, symBinAddr: 0x1000079AC, symSize: 0x4C }
  - { offsetInCU: 0x15989, offset: 0x15989, size: 0x8, addend: 0x0, symName: __Z5crossRK4vec3S1_, symObjAddr: 0x6A4C, symBinAddr: 0x1000079F8, symSize: 0xAC }
  - { offsetInCU: 0x159C4, offset: 0x159C4, size: 0x8, addend: 0x0, symName: __ZNK4vec3ngEv, symObjAddr: 0x6AF8, symBinAddr: 0x100007AA4, symSize: 0x4C }
  - { offsetInCU: 0x159E9, offset: 0x159E9, size: 0x8, addend: 0x0, symName: __ZdvRK4vec3d, symObjAddr: 0x6B44, symBinAddr: 0x100007AF0, symSize: 0x4C }
  - { offsetInCU: 0x15A23, offset: 0x15A23, size: 0x8, addend: 0x0, symName: __ZplRK4vec3S1_, symObjAddr: 0x6B90, symBinAddr: 0x100007B3C, symSize: 0x70 }
  - { offsetInCU: 0x15A5D, offset: 0x15A5D, size: 0x8, addend: 0x0, symName: __ZmlRK4vec3d, symObjAddr: 0x6C00, symBinAddr: 0x100007BAC, symSize: 0x44 }
  - { offsetInCU: 0x15A98, offset: 0x15A98, size: 0x8, addend: 0x0, symName: __ZNSt3__111char_traitsIcE6lengthB8ne180100EPKc, symObjAddr: 0x6E30, symBinAddr: 0x100007DDC, symSize: 0x34 }
  - { offsetInCU: 0x15AD9, offset: 0x15AD9, size: 0x8, addend: 0x0, symName: __ZNKSt3__113basic_ostreamIcNS_11char_traitsIcEEE6sentrycvbB8ne180100Ev, symObjAddr: 0x6E64, symBinAddr: 0x100007E10, symSize: 0x1C }
  - { offsetInCU: 0x15AFF, offset: 0x15AFF, size: 0x8, addend: 0x0, symName: __ZNSt3__119ostreambuf_iteratorIcNS_11char_traitsIcEEEC1B8ne180100ERNS_13basic_ostreamIcS2_EE, symObjAddr: 0x70C0, symBinAddr: 0x10000806C, symSize: 0x34 }
  - { offsetInCU: 0x15B37, offset: 0x15B37, size: 0x8, addend: 0x0, symName: __ZNKSt3__18ios_base5flagsB8ne180100Ev, symObjAddr: 0x70F4, symBinAddr: 0x1000080A0, symSize: 0x18 }
  - { offsetInCU: 0x15B5F, offset: 0x15B5F, size: 0x8, addend: 0x0, symName: __ZNKSt3__19basic_iosIcNS_11char_traitsIcEEE4fillB8ne180100Ev, symObjAddr: 0x710C, symBinAddr: 0x1000080B8, symSize: 0x64 }
  - { offsetInCU: 0x15B87, offset: 0x15B87, size: 0x8, addend: 0x0, symName: __ZNKSt3__119ostreambuf_iteratorIcNS_11char_traitsIcEEE6failedB8ne180100Ev, symObjAddr: 0x7170, symBinAddr: 0x10000811C, symSize: 0x24 }
  - { offsetInCU: 0x15BAD, offset: 0x15BAD, size: 0x8, addend: 0x0, symName: __ZNSt3__19basic_iosIcNS_11char_traitsIcEEE8setstateB8ne180100Ej, symObjAddr: 0x7194, symBinAddr: 0x100008140, symSize: 0x2C }
  - { offsetInCU: 0x15BE2, offset: 0x15BE2, size: 0x8, addend: 0x0, symName: __ZNKSt3__18ios_base5widthB8ne180100Ev, symObjAddr: 0x71C0, symBinAddr: 0x10000816C, symSize: 0x18 }
  - { offsetInCU: 0x15C0A, offset: 0x15C0A, size: 0x8, addend: 0x0, symName: __ZNSt3__115basic_streambufIcNS_11char_traitsIcEEE5sputnB8ne180100EPKcl, symObjAddr: 0x71D8, symBinAddr: 0x100008184, symSize: 0x3C }
  - { offsetInCU: 0x15C4C, offset: 0x15C4C, size: 0x8, addend: 0x0, symName: __ZNSt3__112basic_stringIcNS_11char_traitsIcEENS_9allocatorIcEEEC1B8ne180100Emc, symObjAddr: 0x7214, symBinAddr: 0x1000081C0, symSize: 0x3C }
  - { offsetInCU: 0x15C94, offset: 0x15C94, size: 0x8, addend: 0x0, symName: __ZNKSt3__112basic_stringIcNS_11char_traitsIcEENS_9allocatorIcEEE4dataB8ne180100Ev, symObjAddr: 0x7250, symBinAddr: 0x1000081FC, symSize: 0x28 }
  - { offsetInCU: 0x15CBA, offset: 0x15CBA, size: 0x8, addend: 0x0, symName: __ZNSt3__18ios_base5widthB8ne180100El, symObjAddr: 0x7278, symBinAddr: 0x100008224, symSize: 0x2C }
  - { offsetInCU: 0x15D00, offset: 0x15D00, size: 0x8, addend: 0x0, symName: __ZNSt3__112basic_stringIcNS_11char_traitsIcEENS_9allocatorIcEEEC2B8ne180100Emc, symObjAddr: 0x72A4, symBinAddr: 0x100008250, symSize: 0x4C }
  - { offsetInCU: 0x15D48, offset: 0x15D48, size: 0x8, addend: 0x0, symName: __ZNSt3__117__compressed_pairINS_12basic_stringIcNS_11char_traitsIcEENS_9allocatorIcEEE5__repES5_EC1B8ne180100INS_18__default_init_tagESA_EEOT_OT0_, symObjAddr: 0x72F0, symBinAddr: 0x10000829C, symSize: 0x3C }
  - { offsetInCU: 0x15DA0, offset: 0x15DA0, size: 0x8, addend: 0x0, symName: __ZNSt3__117__compressed_pairINS_12basic_stringIcNS_11char_traitsIcEENS_9allocatorIcEEE5__repES5_EC2B8ne180100INS_18__default_init_tagESA_EEOT_OT0_, symObjAddr: 0x732C, symBinAddr: 0x1000082D8, symSize: 0x3C }
  - { offsetInCU: 0x15DF8, offset: 0x15DF8, size: 0x8, addend: 0x0, symName: __ZNSt3__122__compressed_pair_elemINS_12basic_stringIcNS_11char_traitsIcEENS_9allocatorIcEEE5__repELi0ELb0EEC2B8ne180100ENS_18__default_init_tagE, symObjAddr: 0x7368, symBinAddr: 0x100008314, symSize: 0x14 }
  - { offsetInCU: 0x15E2D, offset: 0x15E2D, size: 0x8, addend: 0x0, symName: __ZNSt3__122__compressed_pair_elemINS_9allocatorIcEELi1ELb1EEC2B8ne180100ENS_18__default_init_tagE, symObjAddr: 0x737C, symBinAddr: 0x100008328, symSize: 0x2C }
  - { offsetInCU: 0x15E62, offset: 0x15E62, size: 0x8, addend: 0x0, symName: __ZNSt3__19allocatorIcEC2B8ne180100Ev, symObjAddr: 0x73A8, symBinAddr: 0x100008354, symSize: 0x2C }
  - { offsetInCU: 0x15E8C, offset: 0x15E8C, size: 0x8, addend: 0x0, symName: __ZNSt3__116__non_trivial_ifILb1ENS_9allocatorIcEEEC2B8ne180100Ev, symObjAddr: 0x73D4, symBinAddr: 0x100008380, symSize: 0x14 }
  - { offsetInCU: 0x15EB6, offset: 0x15EB6, size: 0x8, addend: 0x0, symName: __ZNKSt3__112basic_stringIcNS_11char_traitsIcEENS_9allocatorIcEEE13__get_pointerB8ne180100Ev, symObjAddr: 0x73FC, symBinAddr: 0x1000083A8, symSize: 0x54 }
  - { offsetInCU: 0x15EDC, offset: 0x15EDC, size: 0x8, addend: 0x0, symName: __ZNKSt3__112basic_stringIcNS_11char_traitsIcEENS_9allocatorIcEEE9__is_longB8ne180100Ev, symObjAddr: 0x7450, symBinAddr: 0x1000083FC, symSize: 0x38 }
  - { offsetInCU: 0x15F02, offset: 0x15F02, size: 0x8, addend: 0x0, symName: __ZNKSt3__112basic_stringIcNS_11char_traitsIcEENS_9allocatorIcEEE18__get_long_pointerB8ne180100Ev, symObjAddr: 0x7488, symBinAddr: 0x100008434, symSize: 0x28 }
  - { offsetInCU: 0x15F28, offset: 0x15F28, size: 0x8, addend: 0x0, symName: __ZNKSt3__112basic_stringIcNS_11char_traitsIcEENS_9allocatorIcEEE19__get_short_pointerB8ne180100Ev, symObjAddr: 0x74B0, symBinAddr: 0x10000845C, symSize: 0x28 }
  - { offsetInCU: 0x15F4E, offset: 0x15F4E, size: 0x8, addend: 0x0, symName: __ZNKSt3__117__compressed_pairINS_12basic_stringIcNS_11char_traitsIcEENS_9allocatorIcEEE5__repES5_E5firstB8ne180100Ev, symObjAddr: 0x74D8, symBinAddr: 0x100008484, symSize: 0x24 }
  - { offsetInCU: 0x15F74, offset: 0x15F74, size: 0x8, addend: 0x0, symName: __ZNKSt3__122__compressed_pair_elemINS_12basic_stringIcNS_11char_traitsIcEENS_9allocatorIcEEE5__repELi0ELb0EE5__getB8ne180100Ev, symObjAddr: 0x74FC, symBinAddr: 0x1000084A8, symSize: 0x14 }
  - { offsetInCU: 0x15F9A, offset: 0x15F9A, size: 0x8, addend: 0x0, symName: __ZNSt3__114pointer_traitsIPKcE10pointer_toB8ne180100ERS1_, symObjAddr: 0x7510, symBinAddr: 0x1000084BC, symSize: 0x14 }
  - { offsetInCU: 0x15FBD, offset: 0x15FBD, size: 0x8, addend: 0x0, symName: __ZNSt3__119ostreambuf_iteratorIcNS_11char_traitsIcEEEC2B8ne180100ERNS_13basic_ostreamIcS2_EE, symObjAddr: 0x7524, symBinAddr: 0x1000084D0, symSize: 0x54 }
  - { offsetInCU: 0x15FF5, offset: 0x15FF5, size: 0x8, addend: 0x0, symName: __ZNKSt3__19basic_iosIcNS_11char_traitsIcEEE5rdbufB8ne180100Ev, symObjAddr: 0x7578, symBinAddr: 0x100008524, symSize: 0x24 }
  - { offsetInCU: 0x1601D, offset: 0x1601D, size: 0x8, addend: 0x0, symName: __ZNKSt3__18ios_base5rdbufB8ne180100Ev, symObjAddr: 0x759C, symBinAddr: 0x100008548, symSize: 0x18 }
  - { offsetInCU: 0x16043, offset: 0x16043, size: 0x8, addend: 0x0, symName: __ZNSt3__111char_traitsIcE11eq_int_typeB8ne180100Eii, symObjAddr: 0x75B4, symBinAddr: 0x100008560, symSize: 0x28 }
  - { offsetInCU: 0x16076, offset: 0x16076, size: 0x8, addend: 0x0, symName: __ZNSt3__111char_traitsIcE3eofB8ne180100Ev, symObjAddr: 0x75DC, symBinAddr: 0x100008588, symSize: 0x8 }
  - { offsetInCU: 0x1608A, offset: 0x1608A, size: 0x8, addend: 0x0, symName: __ZNKSt3__19basic_iosIcNS_11char_traitsIcEEE5widenB8ne180100Ec, symObjAddr: 0x75E4, symBinAddr: 0x100008590, symSize: 0x84 }
  - { offsetInCU: 0x160F3, offset: 0x160F3, size: 0x8, addend: 0x0, symName: __ZNKSt3__15ctypeIcE5widenB8ne180100Ec, symObjAddr: 0x7694, symBinAddr: 0x100008640, symSize: 0x38 }
  - { offsetInCU: 0x16128, offset: 0x16128, size: 0x8, addend: 0x0, symName: __ZNSt3__18ios_base8setstateB8ne180100Ej, symObjAddr: 0x76CC, symBinAddr: 0x100008678, symSize: 0x34 }
  - { offsetInCU: 0x1615F, offset: 0x1615F, size: 0x8, addend: 0x0, symName: __ZNK6camera13sample_squareEv, symObjAddr: 0x7724, symBinAddr: 0x1000086D0, symSize: 0x5C }
  - { offsetInCU: 0x16185, offset: 0x16185, size: 0x8, addend: 0x0, symName: __ZNK6camera19defocus_disk_sampleEv, symObjAddr: 0x7780, symBinAddr: 0x10000872C, symSize: 0xD0 }
  - { offsetInCU: 0x161B9, offset: 0x161B9, size: 0x8, addend: 0x0, symName: __ZN3rayC1ERK4vec3S2_, symObjAddr: 0x7850, symBinAddr: 0x1000087FC, symSize: 0x3C }
  - { offsetInCU: 0x161FE, offset: 0x161FE, size: 0x8, addend: 0x0, symName: __Z19random_in_unit_diskv, symObjAddr: 0x788C, symBinAddr: 0x100008838, symSize: 0x88 }
  - { offsetInCU: 0x16239, offset: 0x16239, size: 0x8, addend: 0x0, symName: __ZN3rayC2ERK4vec3S2_, symObjAddr: 0x7914, symBinAddr: 0x1000088C0, symSize: 0x44 }
  - { offsetInCU: 0x1627F, offset: 0x1627F, size: 0x8, addend: 0x0, symName: __ZN3rayC1Ev, symObjAddr: 0x7958, symBinAddr: 0x100008904, symSize: 0x2C }
  - { offsetInCU: 0x162A9, offset: 0x162A9, size: 0x8, addend: 0x0, symName: __ZNKSt3__110shared_ptrI8materialEptB8ne180100Ev, symObjAddr: 0x7984, symBinAddr: 0x100008930, symSize: 0x18 }
  - { offsetInCU: 0x162CF, offset: 0x162CF, size: 0x8, addend: 0x0, symName: __ZNK3ray9directionEv, symObjAddr: 0x799C, symBinAddr: 0x100008948, symSize: 0x18 }
  - { offsetInCU: 0x162F5, offset: 0x162F5, size: 0x8, addend: 0x0, symName: __ZN3rayC2Ev, symObjAddr: 0x79B4, symBinAddr: 0x100008960, symSize: 0x38 }
  - { offsetInCU: 0x1631F, offset: 0x1631F, size: 0x8, addend: 0x0, symName: __ZN13hittable_listD2Ev, symObjAddr: 0x79EC, symBinAddr: 0x100008998, symSize: 0x48 }
  - { offsetInCU: 0x1634B, offset: 0x1634B, size: 0x8, addend: 0x0, symName: __ZNSt3__16vectorINS_10shared_ptrI8hittableEENS_9allocatorIS3_EEED1B8ne180100Ev, symObjAddr: 0x7A34, symBinAddr: 0x1000089E0, symSize: 0x2C }
  - { offsetInCU: 0x16375, offset: 0x16375, size: 0x8, addend: 0x0, symName: __ZN8hittableD2Ev, symObjAddr: 0x7A60, symBinAddr: 0x100008A0C, symSize: 0x14 }
  - { offsetInCU: 0x1639F, offset: 0x1639F, size: 0x8, addend: 0x0, symName: __ZNSt3__16vectorINS_10shared_ptrI8hittableEENS_9allocatorIS3_EEED2B8ne180100Ev, symObjAddr: 0x7A74, symBinAddr: 0x100008A20, symSize: 0x44 }
  - { offsetInCU: 0x163C9, offset: 0x163C9, size: 0x8, addend: 0x0, symName: __ZNSt3__16vectorINS_10shared_ptrI8hittableEENS_9allocatorIS3_EEE16__destroy_vectorC1B8ne180100ERS6_, symObjAddr: 0x7AB8, symBinAddr: 0x100008A64, symSize: 0x34 }
  - { offsetInCU: 0x16402, offset: 0x16402, size: 0x8, addend: 0x0, symName: __ZNSt3__16vectorINS_10shared_ptrI8hittableEENS_9allocatorIS3_EEE16__destroy_vectorclB8ne180100Ev, symObjAddr: 0x7AEC, symBinAddr: 0x100008A98, symSize: 0x90 }
  - { offsetInCU: 0x16428, offset: 0x16428, size: 0x8, addend: 0x0, symName: __ZNSt3__16vectorINS_10shared_ptrI8hittableEENS_9allocatorIS3_EEE16__destroy_vectorC2B8ne180100ERS6_, symObjAddr: 0x7B7C, symBinAddr: 0x100008B28, symSize: 0x20 }
  - { offsetInCU: 0x16461, offset: 0x16461, size: 0x8, addend: 0x0, symName: __ZNSt3__16vectorINS_10shared_ptrI8hittableEENS_9allocatorIS3_EEE7__clearB8ne180100Ev, symObjAddr: 0x7B9C, symBinAddr: 0x100008B48, symSize: 0x28 }
  - { offsetInCU: 0x16487, offset: 0x16487, size: 0x8, addend: 0x0, symName: __ZNSt3__16vectorINS_10shared_ptrI8hittableEENS_9allocatorIS3_EEE22__base_destruct_at_endB8ne180100EPS3_, symObjAddr: 0x7BC4, symBinAddr: 0x100008B70, symSize: 0x8C }
  - { offsetInCU: 0x164D0, offset: 0x164D0, size: 0x8, addend: 0x0, symName: __ZNSt3__112basic_stringIcNS_11char_traitsIcEENS_9allocatorIcEEEC1B8ne180100ILi0EEEPKc, symObjAddr: 0x7C50, symBinAddr: 0x100008BFC, symSize: 0x34 }
  - { offsetInCU: 0x1650F, offset: 0x1650F, size: 0x8, addend: 0x0, symName: __ZNSt3__112basic_stringIcNS_11char_traitsIcEENS_9allocatorIcEEEC2B8ne180100ILi0EEEPKc, symObjAddr: 0x7C84, symBinAddr: 0x100008C30, symSize: 0x58 }
  - { offsetInCU: 0x1654E, offset: 0x1654E, size: 0x8, addend: 0x0, symName: __ZN4aabb8max_axisEv, symObjAddr: 0x7CDC, symBinAddr: 0x100008C88, symSize: 0xB8 }
  - { offsetInCU: 0x1659E, offset: 0x1659E, size: 0x8, addend: 0x0, symName: __ZNK8interval4sizeEv, symObjAddr: 0x7D94, symBinAddr: 0x100008D40, symSize: 0x20 }
  - { offsetInCU: 0x165C4, offset: 0x165C4, size: 0x8, addend: 0x0, symName: __ZNSt3__110shared_ptrI8hittableE4swapB8ne180100ERS2_, symObjAddr: 0x7E38, symBinAddr: 0x100008DE4, symSize: 0x44 }
  - { offsetInCU: 0x165F9, offset: 0x165F9, size: 0x8, addend: 0x0, symName: __ZN13hittable_listC2ERKS_, symObjAddr: 0x7EB8, symBinAddr: 0x100008E64, symSize: 0x88 }
  - { offsetInCU: 0x1662E, offset: 0x1662E, size: 0x8, addend: 0x0, symName: __ZN8hittableC2ERKS_, symObjAddr: 0x7F40, symBinAddr: 0x100008EEC, symSize: 0x28 }
  - { offsetInCU: 0x16663, offset: 0x16663, size: 0x8, addend: 0x0, symName: __ZNSt3__16vectorINS_10shared_ptrI8hittableEENS_9allocatorIS3_EEEC1ERKS6_, symObjAddr: 0x7F68, symBinAddr: 0x100008F14, symSize: 0x34 }
  - { offsetInCU: 0x1669E, offset: 0x1669E, size: 0x8, addend: 0x0, symName: __ZNSt3__16vectorINS_10shared_ptrI8hittableEENS_9allocatorIS3_EEEC2ERKS6_, symObjAddr: 0x7F9C, symBinAddr: 0x100008F48, symSize: 0x94 }
  - { offsetInCU: 0x166D9, offset: 0x166D9, size: 0x8, addend: 0x0, symName: __ZNSt3__116allocator_traitsINS_9allocatorINS_10shared_ptrI8hittableEEEEE37select_on_container_copy_constructionB8ne180100IS5_vvEES5_RKS5_, symObjAddr: 0x8030, symBinAddr: 0x100008FDC, symSize: 0x10 }
  - { offsetInCU: 0x1670E, offset: 0x1670E, size: 0x8, addend: 0x0, symName: __ZNSt3__117__compressed_pairIPNS_10shared_ptrI8hittableEENS_9allocatorIS3_EEEC1B8ne180100IDnS6_EEOT_OT0_, symObjAddr: 0x8040, symBinAddr: 0x100008FEC, symSize: 0x3C }
  - { offsetInCU: 0x16766, offset: 0x16766, size: 0x8, addend: 0x0, symName: __ZNSt3__16vectorINS_10shared_ptrI8hittableEENS_9allocatorIS3_EEE16__init_with_sizeB8ne180100IPS3_S8_EEvT_T0_m, symObjAddr: 0x807C, symBinAddr: 0x100009028, symSize: 0xB8 }
  - { offsetInCU: 0x167DA, offset: 0x167DA, size: 0x8, addend: 0x0, symName: __ZNSt3__117__compressed_pairIPNS_10shared_ptrI8hittableEENS_9allocatorIS3_EEEC2B8ne180100IDnS6_EEOT_OT0_, symObjAddr: 0x8134, symBinAddr: 0x1000090E0, symSize: 0x44 }
  - { offsetInCU: 0x16832, offset: 0x16832, size: 0x8, addend: 0x0, symName: __ZNSt3__122__compressed_pair_elemINS_9allocatorINS_10shared_ptrI8hittableEEEELi1ELb1EEC2B8ne180100IS5_vEEOT_, symObjAddr: 0x8178, symBinAddr: 0x100009124, symSize: 0x18 }
  - { offsetInCU: 0x16874, offset: 0x16874, size: 0x8, addend: 0x0, symName: __ZNSt3__16vectorINS_10shared_ptrI8hittableEENS_9allocatorIS3_EEE11__vallocateB8ne180100Em, symObjAddr: 0x81D0, symBinAddr: 0x10000917C, symSize: 0xAC }
  - { offsetInCU: 0x168B8, offset: 0x168B8, size: 0x8, addend: 0x0, symName: __ZNSt3__16vectorINS_10shared_ptrI8hittableEENS_9allocatorIS3_EEE18__construct_at_endIPS3_S8_EEvT_T0_m, symObjAddr: 0x827C, symBinAddr: 0x100009228, symSize: 0x8C }
  - { offsetInCU: 0x1692E, offset: 0x1692E, size: 0x8, addend: 0x0, symName: __ZNSt3__128__exception_guard_exceptionsINS_6vectorINS_10shared_ptrI8hittableEENS_9allocatorIS4_EEE16__destroy_vectorEE10__completeB8ne180100Ev, symObjAddr: 0x8308, symBinAddr: 0x1000092B4, symSize: 0x1C }
  - { offsetInCU: 0x16954, offset: 0x16954, size: 0x8, addend: 0x0, symName: __ZNSt3__128__exception_guard_exceptionsINS_6vectorINS_10shared_ptrI8hittableEENS_9allocatorIS4_EEE16__destroy_vectorEED1B8ne180100Ev, symObjAddr: 0x8324, symBinAddr: 0x1000092D0, symSize: 0x2C }
  - { offsetInCU: 0x1697E, offset: 0x1697E, size: 0x8, addend: 0x0, symName: __ZNSt3__128__exception_guard_exceptionsINS_6vectorINS_10shared_ptrI8hittableEENS_9allocatorIS4_EEE16__destroy_vectorEEC1B8ne180100ES8_, symObjAddr: 0x8350, symBinAddr: 0x1000092FC, symSize: 0x34 }
  - { offsetInCU: 0x169B6, offset: 0x169B6, size: 0x8, addend: 0x0, symName: __ZNSt3__128__exception_guard_exceptionsINS_6vectorINS_10shared_ptrI8hittableEENS_9allocatorIS4_EEE16__destroy_vectorEEC2B8ne180100ES8_, symObjAddr: 0x8384, symBinAddr: 0x100009330, symSize: 0x24 }
  - { offsetInCU: 0x16A0E, offset: 0x16A0E, size: 0x8, addend: 0x0, symName: __ZNSt3__14pairIPNS_10shared_ptrI8hittableEES4_EC1B8ne180100IS4_S4_Li0EEEOT_OT0_, symObjAddr: 0x8614, symBinAddr: 0x1000095C0, symSize: 0x3C }
  - { offsetInCU: 0x16A6C, offset: 0x16A6C, size: 0x8, addend: 0x0, symName: __ZNSt3__14pairIPNS_10shared_ptrI8hittableEES4_EC2B8ne180100IS4_S4_Li0EEEOT_OT0_, symObjAddr: 0x8650, symBinAddr: 0x1000095FC, symSize: 0x34 }
  - { offsetInCU: 0x16ACA, offset: 0x16ACA, size: 0x8, addend: 0x0, symName: __ZNSt3__129_AllocatorDestroyRangeReverseINS_9allocatorINS_10shared_ptrI8hittableEEEEPS4_EC1B8ne180100ERS5_RS6_S9_, symObjAddr: 0x86D0, symBinAddr: 0x10000967C, symSize: 0x44 }
  - { offsetInCU: 0x16B21, offset: 0x16B21, size: 0x8, addend: 0x0, symName: __ZNSt3__116allocator_traitsINS_9allocatorINS_10shared_ptrI8hittableEEEEE9constructB8ne180100IS4_JRS4_EvEEvRS5_PT_DpOT0_, symObjAddr: 0x8714, symBinAddr: 0x1000096C0, symSize: 0x34 }
  - { offsetInCU: 0x16B78, offset: 0x16B78, size: 0x8, addend: 0x0, symName: __ZNSt3__128__exception_guard_exceptionsINS_29_AllocatorDestroyRangeReverseINS_9allocatorINS_10shared_ptrI8hittableEEEEPS5_EEE10__completeB8ne180100Ev, symObjAddr: 0x8748, symBinAddr: 0x1000096F4, symSize: 0x1C }
  - { offsetInCU: 0x16B9E, offset: 0x16B9E, size: 0x8, addend: 0x0, symName: __ZNSt3__128__exception_guard_exceptionsINS_29_AllocatorDestroyRangeReverseINS_9allocatorINS_10shared_ptrI8hittableEEEEPS5_EEED1B8ne180100Ev, symObjAddr: 0x8764, symBinAddr: 0x100009710, symSize: 0x2C }
  - { offsetInCU: 0x16BC8, offset: 0x16BC8, size: 0x8, addend: 0x0, symName: __ZNSt3__128__exception_guard_exceptionsINS_29_AllocatorDestroyRangeReverseINS_9allocatorINS_10shared_ptrI8hittableEEEEPS5_EEEC1B8ne180100ES8_, symObjAddr: 0x8790, symBinAddr: 0x10000973C, symSize: 0x34 }
  - { offsetInCU: 0x16C01, offset: 0x16C01, size: 0x8, addend: 0x0, symName: __ZNSt3__128__exception_guard_exceptionsINS_29_AllocatorDestroyRangeReverseINS_9allocatorINS_10shared_ptrI8hittableEEEEPS5_EEEC2B8ne180100ES8_, symObjAddr: 0x87C4, symBinAddr: 0x100009770, symSize: 0x30 }
  - { offsetInCU: 0x16C3A, offset: 0x16C3A, size: 0x8, addend: 0x0, symName: __ZNSt3__129_AllocatorDestroyRangeReverseINS_9allocatorINS_10shared_ptrI8hittableEEEEPS4_EC2B8ne180100ERS5_RS6_S9_, symObjAddr: 0x87F4, symBinAddr: 0x1000097A0, symSize: 0x38 }
  - { offsetInCU: 0x16C91, offset: 0x16C91, size: 0x8, addend: 0x0, symName: __ZNSt3__19allocatorINS_10shared_ptrI8hittableEEE9constructB8ne180100IS3_JRS3_EEEvPT_DpOT0_, symObjAddr: 0x882C, symBinAddr: 0x1000097D8, symSize: 0x30 }
  - { offsetInCU: 0x16CE7, offset: 0x16CE7, size: 0x8, addend: 0x0, symName: __ZNSt3__128__exception_guard_exceptionsINS_29_AllocatorDestroyRangeReverseINS_9allocatorINS_10shared_ptrI8hittableEEEEPS5_EEED2B8ne180100Ev, symObjAddr: 0x885C, symBinAddr: 0x100009808, symSize: 0x50 }
  - { offsetInCU: 0x16D11, offset: 0x16D11, size: 0x8, addend: 0x0, symName: __ZNKSt3__129_AllocatorDestroyRangeReverseINS_9allocatorINS_10shared_ptrI8hittableEEEEPS4_EclB8ne180100Ev, symObjAddr: 0x88AC, symBinAddr: 0x100009858, symSize: 0x68 }
  - { offsetInCU: 0x16D37, offset: 0x16D37, size: 0x8, addend: 0x0, symName: __ZNSt3__118__unwrap_iter_implIPNS_10shared_ptrI8hittableEELb1EE8__unwrapB8ne180100ES4_, symObjAddr: 0x8984, symBinAddr: 0x100009930, symSize: 0x24 }
  - { offsetInCU: 0x16D5A, offset: 0x16D5A, size: 0x8, addend: 0x0, symName: __ZNSt3__118__unwrap_iter_implIPNS_10shared_ptrI8hittableEELb1EE8__rewrapB8ne180100ES4_S4_, symObjAddr: 0x89A8, symBinAddr: 0x100009954, symSize: 0x50 }
  - { offsetInCU: 0x16D8B, offset: 0x16D8B, size: 0x8, addend: 0x0, symName: __ZNSt3__128__exception_guard_exceptionsINS_6vectorINS_10shared_ptrI8hittableEENS_9allocatorIS4_EEE16__destroy_vectorEED2B8ne180100Ev, symObjAddr: 0x89F8, symBinAddr: 0x1000099A4, symSize: 0x48 }
  - { offsetInCU: 0x16DB5, offset: 0x16DB5, size: 0x8, addend: 0x0, symName: __ZN3triC2ERK4vec3S2_S2_NSt3__110shared_ptrI8materialEE, symObjAddr: 0x8A40, symBinAddr: 0x1000099EC, symSize: 0x208 }
  - { offsetInCU: 0x16E48, offset: 0x16E48, size: 0x8, addend: 0x0, symName: __ZN3triD0Ev, symObjAddr: 0x8C48, symBinAddr: 0x100009BF4, symSize: 0x30 }
  - { offsetInCU: 0x16E74, offset: 0x16E74, size: 0x8, addend: 0x0, symName: __ZNK3tri3hitERK3ray8intervalR10hit_record, symObjAddr: 0x8C78, symBinAddr: 0x100009C24, symSize: 0x354 }
  - { offsetInCU: 0x16F5A, offset: 0x16F5A, size: 0x8, addend: 0x0, symName: __ZNK3tri4minsEv, symObjAddr: 0x8FCC, symBinAddr: 0x100009F78, symSize: 0x1D4 }
  - { offsetInCU: 0x16F8E, offset: 0x16F8E, size: 0x8, addend: 0x0, symName: __ZNK3tri4maxsEv, symObjAddr: 0x91A0, symBinAddr: 0x10000A14C, symSize: 0x1D4 }
  - { offsetInCU: 0x16FC1, offset: 0x16FC1, size: 0x8, addend: 0x0, symName: __Z3dotRK4vec3S1_, symObjAddr: 0x9374, symBinAddr: 0x10000A320, symSize: 0x50 }
  - { offsetInCU: 0x16FFC, offset: 0x16FFC, size: 0x8, addend: 0x0, symName: __ZNK3ray6originEv, symObjAddr: 0x93C4, symBinAddr: 0x10000A370, symSize: 0x14 }
  - { offsetInCU: 0x17022, offset: 0x17022, size: 0x8, addend: 0x0, symName: __ZNK8interval8containsEd, symObjAddr: 0x93D8, symBinAddr: 0x10000A384, symSize: 0x60 }
  - { offsetInCU: 0x17056, offset: 0x17056, size: 0x8, addend: 0x0, symName: __ZNK3ray2atEd, symObjAddr: 0x9438, symBinAddr: 0x10000A3E4, symSize: 0x64 }
  - { offsetInCU: 0x1708A, offset: 0x1708A, size: 0x8, addend: 0x0, symName: __ZN10hit_record15set_face_normalERK3rayRK4vec3, symObjAddr: 0x949C, symBinAddr: 0x10000A448, symSize: 0xA4 }
  - { offsetInCU: 0x170CC, offset: 0x170CC, size: 0x8, addend: 0x0, symName: __ZNK4vec3ixEi, symObjAddr: 0x9540, symBinAddr: 0x10000A4EC, symSize: 0x20 }
  - { offsetInCU: 0x17100, offset: 0x17100, size: 0x8, addend: 0x0, symName: __ZN3triD2Ev, symObjAddr: 0x9560, symBinAddr: 0x10000A50C, symSize: 0x48 }
  - { offsetInCU: 0x1712C, offset: 0x1712C, size: 0x8, addend: 0x0, symName: __ZNSt3__110shared_ptrI8materialED2B8ne180100Ev, symObjAddr: 0x95A8, symBinAddr: 0x10000A554, symSize: 0x54 }
  - { offsetInCU: 0x17156, offset: 0x17156, size: 0x8, addend: 0x0, symName: __ZNSt3__119__shared_weak_count16__release_sharedB8ne180100Ev, symObjAddr: 0x95FC, symBinAddr: 0x10000A5A8, symSize: 0x3C }
  - { offsetInCU: 0x1717C, offset: 0x1717C, size: 0x8, addend: 0x0, symName: __ZNSt3__114__shared_count16__release_sharedB8ne180100Ev, symObjAddr: 0x9638, symBinAddr: 0x10000A5E4, symSize: 0x7C }
  - { offsetInCU: 0x171A2, offset: 0x171A2, size: 0x8, addend: 0x0, symName: __ZNSt3__110shared_ptrI8hittableED2B8ne180100Ev, symObjAddr: 0x96E4, symBinAddr: 0x10000A690, symSize: 0x54 }
  - { offsetInCU: 0x171CC, offset: 0x171CC, size: 0x8, addend: 0x0, symName: __ZNSt3__19allocatorI10lambertianEC1B8ne180100Ev, symObjAddr: 0x97D0, symBinAddr: 0x10000A77C, symSize: 0x2C }
  - { offsetInCU: 0x17242, offset: 0x17242, size: 0x8, addend: 0x0, symName: __ZNSt3__118__allocation_guardINS_9allocatorINS_20__shared_ptr_emplaceI10lambertianNS1_IS3_EEEEEEEC1B8ne180100IS4_EET_m, symObjAddr: 0x97FC, symBinAddr: 0x10000A7A8, symSize: 0x34 }
  - { offsetInCU: 0x17291, offset: 0x17291, size: 0x8, addend: 0x0, symName: __ZNKSt3__118__allocation_guardINS_9allocatorINS_20__shared_ptr_emplaceI10lambertianNS1_IS3_EEEEEEE5__getB8ne180100Ev, symObjAddr: 0x9830, symBinAddr: 0x10000A7DC, symSize: 0x18 }
  - { offsetInCU: 0x172BD, offset: 0x172BD, size: 0x8, addend: 0x0, symName: __ZNSt3__120__shared_ptr_emplaceI10lambertianNS_9allocatorIS1_EEEC1B8ne180100IJ4vec3ES3_Li0EEES3_DpOT_, symObjAddr: 0x9848, symBinAddr: 0x10000A7F4, symSize: 0x34 }
  - { offsetInCU: 0x1731F, offset: 0x1731F, size: 0x8, addend: 0x0, symName: __ZNSt3__118__allocation_guardINS_9allocatorINS_20__shared_ptr_emplaceI10lambertianNS1_IS3_EEEEEEE13__release_ptrB8ne180100Ev, symObjAddr: 0x987C, symBinAddr: 0x10000A828, symSize: 0x24 }
  - { offsetInCU: 0x17353, offset: 0x17353, size: 0x8, addend: 0x0, symName: __ZNSt3__110shared_ptrI10lambertianE27__create_with_control_blockB8ne180100IS1_NS_20__shared_ptr_emplaceIS1_NS_9allocatorIS1_EEEEEES2_PT_PT0_, symObjAddr: 0x98A0, symBinAddr: 0x10000A84C, symSize: 0xA4 }
  - { offsetInCU: 0x173A8, offset: 0x173A8, size: 0x8, addend: 0x0, symName: __ZNSt3__120__shared_ptr_emplaceI10lambertianNS_9allocatorIS1_EEE10__get_elemB8ne180100Ev, symObjAddr: 0x9944, symBinAddr: 0x10000A8F0, symSize: 0x28 }
  - { offsetInCU: 0x173CE, offset: 0x173CE, size: 0x8, addend: 0x0, symName: __ZNSt3__118__allocation_guardINS_9allocatorINS_20__shared_ptr_emplaceI10lambertianNS1_IS3_EEEEEEED1B8ne180100Ev, symObjAddr: 0x996C, symBinAddr: 0x10000A918, symSize: 0x2C }
  - { offsetInCU: 0x173F8, offset: 0x173F8, size: 0x8, addend: 0x0, symName: __ZNSt3__118__allocation_guardINS_9allocatorINS_20__shared_ptr_emplaceI10lambertianNS1_IS3_EEEEEEEC2B8ne180100IS4_EET_m, symObjAddr: 0x9998, symBinAddr: 0x10000A944, symSize: 0x50 }
  - { offsetInCU: 0x17447, offset: 0x17447, size: 0x8, addend: 0x0, symName: __ZNSt3__19allocatorINS_20__shared_ptr_emplaceI10lambertianNS0_IS2_EEEEEC1B8ne180100IS2_EERKNS0_IT_EE, symObjAddr: 0x99E8, symBinAddr: 0x10000A994, symSize: 0x34 }
  - { offsetInCU: 0x17485, offset: 0x17485, size: 0x8, addend: 0x0, symName: __ZNSt3__116allocator_traitsINS_9allocatorINS_20__shared_ptr_emplaceI10lambertianNS1_IS3_EEEEEEE8allocateB8ne180100ERS6_m, symObjAddr: 0x9A1C, symBinAddr: 0x10000A9C8, symSize: 0x2C }
  - { offsetInCU: 0x174B8, offset: 0x174B8, size: 0x8, addend: 0x0, symName: __ZNSt3__19allocatorINS_20__shared_ptr_emplaceI10lambertianNS0_IS2_EEEEEC2B8ne180100IS2_EERKNS0_IT_EE, symObjAddr: 0x9A48, symBinAddr: 0x10000A9F4, symSize: 0x30 }
  - { offsetInCU: 0x174F6, offset: 0x174F6, size: 0x8, addend: 0x0, symName: __ZNSt3__116__non_trivial_ifILb1ENS_9allocatorINS_20__shared_ptr_emplaceI10lambertianNS1_IS3_EEEEEEEC2B8ne180100Ev, symObjAddr: 0x9A78, symBinAddr: 0x10000AA24, symSize: 0x14 }
  - { offsetInCU: 0x17520, offset: 0x17520, size: 0x8, addend: 0x0, symName: __ZNSt3__19allocatorINS_20__shared_ptr_emplaceI10lambertianNS0_IS2_EEEEE8allocateB8ne180100Em, symObjAddr: 0x9A8C, symBinAddr: 0x10000AA38, symSize: 0x5C }
  - { offsetInCU: 0x1755E, offset: 0x1755E, size: 0x8, addend: 0x0, symName: __ZNSt3__116allocator_traitsINS_9allocatorINS_20__shared_ptr_emplaceI10lambertianNS1_IS3_EEEEEEE8max_sizeB8ne180100IS6_vEEmRKS6_, symObjAddr: 0x9AE8, symBinAddr: 0x10000AA94, symSize: 0x24 }
  - { offsetInCU: 0x1758C, offset: 0x1758C, size: 0x8, addend: 0x0, symName: __ZNKSt3__19allocatorINS_20__shared_ptr_emplaceI10lambertianNS0_IS2_EEEEE8max_sizeB8ne180100Ev, symObjAddr: 0x9B0C, symBinAddr: 0x10000AAB8, symSize: 0x20 }
  - { offsetInCU: 0x175B2, offset: 0x175B2, size: 0x8, addend: 0x0, symName: __ZNSt3__120__shared_ptr_emplaceI10lambertianNS_9allocatorIS1_EEEC2B8ne180100IJ4vec3ES3_Li0EEES3_DpOT_, symObjAddr: 0x9B2C, symBinAddr: 0x10000AAD8, symSize: 0xC8 }
  - { offsetInCU: 0x17635, offset: 0x17635, size: 0x8, addend: 0x0, symName: __ZNSt3__119__shared_weak_countC2B8ne180100El, symObjAddr: 0x9BF4, symBinAddr: 0x10000ABA0, symSize: 0x54 }
  - { offsetInCU: 0x1766D, offset: 0x1766D, size: 0x8, addend: 0x0, symName: __ZNSt3__120__shared_ptr_emplaceI10lambertianNS_9allocatorIS1_EEE8_StorageC1B8ne180100EOS3_, symObjAddr: 0x9C48, symBinAddr: 0x10000ABF4, symSize: 0x34 }
  - { offsetInCU: 0x176A6, offset: 0x176A6, size: 0x8, addend: 0x0, symName: __ZNSt3__120__shared_ptr_emplaceI10lambertianNS_9allocatorIS1_EEE11__get_allocB8ne180100Ev, symObjAddr: 0x9C7C, symBinAddr: 0x10000AC28, symSize: 0x28 }
  - { offsetInCU: 0x176D1, offset: 0x176D1, size: 0x8, addend: 0x0, symName: __ZNSt3__116allocator_traitsINS_9allocatorI10lambertianEEE9constructB8ne180100IS2_J4vec3EvEEvRS3_PT_DpOT0_, symObjAddr: 0x9CA4, symBinAddr: 0x10000AC50, symSize: 0x34 }
  - { offsetInCU: 0x17728, offset: 0x17728, size: 0x8, addend: 0x0, symName: __ZNSt3__120__shared_ptr_emplaceI10lambertianNS_9allocatorIS1_EEE8_StorageD1B8ne180100Ev, symObjAddr: 0x9CD8, symBinAddr: 0x10000AC84, symSize: 0x2C }
  - { offsetInCU: 0x17752, offset: 0x17752, size: 0x8, addend: 0x0, symName: __ZNSt3__120__shared_ptr_emplaceI10lambertianNS_9allocatorIS1_EEED1Ev, symObjAddr: 0x9D04, symBinAddr: 0x10000ACB0, symSize: 0x2C }
  - { offsetInCU: 0x1777E, offset: 0x1777E, size: 0x8, addend: 0x0, symName: __ZNSt3__120__shared_ptr_emplaceI10lambertianNS_9allocatorIS1_EEED0Ev, symObjAddr: 0x9D30, symBinAddr: 0x10000ACDC, symSize: 0x30 }
  - { offsetInCU: 0x177AA, offset: 0x177AA, size: 0x8, addend: 0x0, symName: __ZNSt3__120__shared_ptr_emplaceI10lambertianNS_9allocatorIS1_EEE16__on_zero_sharedEv, symObjAddr: 0x9D60, symBinAddr: 0x10000AD0C, symSize: 0x24 }
  - { offsetInCU: 0x177D0, offset: 0x177D0, size: 0x8, addend: 0x0, symName: __ZNSt3__120__shared_ptr_emplaceI10lambertianNS_9allocatorIS1_EEE21__on_zero_shared_weakEv, symObjAddr: 0x9D84, symBinAddr: 0x10000AD30, symSize: 0x5C }
  - { offsetInCU: 0x17811, offset: 0x17811, size: 0x8, addend: 0x0, symName: __ZNSt3__114__shared_countC2B8ne180100El, symObjAddr: 0x9DE0, symBinAddr: 0x10000AD8C, symSize: 0x30 }
  - { offsetInCU: 0x17849, offset: 0x17849, size: 0x8, addend: 0x0, symName: __ZNSt3__120__shared_ptr_emplaceI10lambertianNS_9allocatorIS1_EEE8_StorageC2B8ne180100EOS3_, symObjAddr: 0x9E10, symBinAddr: 0x10000ADBC, symSize: 0x30 }
  - { offsetInCU: 0x17882, offset: 0x17882, size: 0x8, addend: 0x0, symName: __ZNSt3__120__shared_ptr_emplaceI10lambertianNS_9allocatorIS1_EEE8_Storage11__get_allocB8ne180100Ev, symObjAddr: 0x9E40, symBinAddr: 0x10000ADEC, symSize: 0x3C }
  - { offsetInCU: 0x178D5, offset: 0x178D5, size: 0x8, addend: 0x0, symName: __ZNSt3__117__compressed_pairINS_9allocatorI10lambertianEES2_E16__get_first_baseB8ne180100EPS4_, symObjAddr: 0x9E7C, symBinAddr: 0x10000AE28, symSize: 0x14 }
  - { offsetInCU: 0x178F8, offset: 0x178F8, size: 0x8, addend: 0x0, symName: __ZNSt3__19allocatorI10lambertianE9constructB8ne180100IS1_J4vec3EEEvPT_DpOT0_, symObjAddr: 0x9E90, symBinAddr: 0x10000AE3C, symSize: 0x30 }
  - { offsetInCU: 0x1794E, offset: 0x1794E, size: 0x8, addend: 0x0, symName: __ZN10lambertianC1ERK4vec3, symObjAddr: 0x9EC0, symBinAddr: 0x10000AE6C, symSize: 0x34 }
  - { offsetInCU: 0x17986, offset: 0x17986, size: 0x8, addend: 0x0, symName: __ZN10lambertianC2ERK4vec3, symObjAddr: 0x9EF4, symBinAddr: 0x10000AEA0, symSize: 0x5C }
  - { offsetInCU: 0x179BE, offset: 0x179BE, size: 0x8, addend: 0x0, symName: __ZN8materialC2Ev, symObjAddr: 0x9F50, symBinAddr: 0x10000AEFC, symSize: 0x24 }
  - { offsetInCU: 0x179EA, offset: 0x179EA, size: 0x8, addend: 0x0, symName: __ZN10lambertianD1Ev, symObjAddr: 0x9F74, symBinAddr: 0x10000AF20, symSize: 0x2C }
  - { offsetInCU: 0x17A16, offset: 0x17A16, size: 0x8, addend: 0x0, symName: __ZN10lambertianD0Ev, symObjAddr: 0x9FA0, symBinAddr: 0x10000AF4C, symSize: 0x30 }
  - { offsetInCU: 0x17A42, offset: 0x17A42, size: 0x8, addend: 0x0, symName: __ZNK10lambertian7scatterERK3rayRK10hit_recordR4vec3RS0_, symObjAddr: 0x9FD0, symBinAddr: 0x10000AF7C, symSize: 0xD4 }
  - { offsetInCU: 0x17AAE, offset: 0x17AAE, size: 0x8, addend: 0x0, symName: __ZN8materialD1Ev, symObjAddr: 0xA0A4, symBinAddr: 0x10000B050, symSize: 0x2C }
  - { offsetInCU: 0x17AD8, offset: 0x17AD8, size: 0x8, addend: 0x0, symName: __ZN8materialD0Ev, symObjAddr: 0xA0D0, symBinAddr: 0x10000B07C, symSize: 0x30 }
  - { offsetInCU: 0x17B02, offset: 0x17B02, size: 0x8, addend: 0x0, symName: __ZNK8material7scatterERK3rayRK10hit_recordR4vec3RS0_, symObjAddr: 0xA100, symBinAddr: 0x10000B0AC, symSize: 0x28 }
  - { offsetInCU: 0x17B60, offset: 0x17B60, size: 0x8, addend: 0x0, symName: __ZN8materialD2Ev, symObjAddr: 0xA128, symBinAddr: 0x10000B0D4, symSize: 0x14 }
  - { offsetInCU: 0x17B8A, offset: 0x17B8A, size: 0x8, addend: 0x0, symName: __ZN10lambertianD2Ev, symObjAddr: 0xA13C, symBinAddr: 0x10000B0E8, symSize: 0x2C }
  - { offsetInCU: 0x17BB5, offset: 0x17BB5, size: 0x8, addend: 0x0, symName: __Z18random_unit_vectorv, symObjAddr: 0xA168, symBinAddr: 0x10000B114, symSize: 0xA0 }
  - { offsetInCU: 0x17BFE, offset: 0x17BFE, size: 0x8, addend: 0x0, symName: __ZNK4vec39near_zeroEv, symObjAddr: 0xA208, symBinAddr: 0x10000B1B4, symSize: 0x98 }
  - { offsetInCU: 0x17C32, offset: 0x17C32, size: 0x8, addend: 0x0, symName: __ZNSt3__120__shared_ptr_emplaceI10lambertianNS_9allocatorIS1_EEE8_StorageD2B8ne180100Ev, symObjAddr: 0xA2A0, symBinAddr: 0x10000B24C, symSize: 0x2C }
  - { offsetInCU: 0x17C5C, offset: 0x17C5C, size: 0x8, addend: 0x0, symName: __ZNSt3__120__shared_ptr_emplaceI10lambertianNS_9allocatorIS1_EEED2Ev, symObjAddr: 0xA2CC, symBinAddr: 0x10000B278, symSize: 0x48 }
  - { offsetInCU: 0x17C88, offset: 0x17C88, size: 0x8, addend: 0x0, symName: __ZNSt3__120__shared_ptr_emplaceI10lambertianNS_9allocatorIS1_EEE21__on_zero_shared_implB8ne180100IS3_Li0EEEvv, symObjAddr: 0xA314, symBinAddr: 0x10000B2C0, symSize: 0x44 }
  - { offsetInCU: 0x17CD8, offset: 0x17CD8, size: 0x8, addend: 0x0, symName: __ZNSt3__116allocator_traitsINS_9allocatorI10lambertianEEE7destroyB8ne180100IS2_vEEvRS3_PT_, symObjAddr: 0xA358, symBinAddr: 0x10000B304, symSize: 0x2C }
  - { offsetInCU: 0x17D15, offset: 0x17D15, size: 0x8, addend: 0x0, symName: __ZNSt3__19allocatorI10lambertianE7destroyB8ne180100EPS1_, symObjAddr: 0xA384, symBinAddr: 0x10000B330, symSize: 0x30 }
  - { offsetInCU: 0x17D49, offset: 0x17D49, size: 0x8, addend: 0x0, symName: __ZNSt3__116allocator_traitsINS_9allocatorINS_20__shared_ptr_emplaceI10lambertianNS1_IS3_EEEEEEE10deallocateB8ne180100ERS6_PS5_m, symObjAddr: 0xA3B4, symBinAddr: 0x10000B360, symSize: 0x34 }
  - { offsetInCU: 0x17D8B, offset: 0x17D8B, size: 0x8, addend: 0x0, symName: __ZNSt3__114pointer_traitsIPNS_20__shared_ptr_emplaceI10lambertianNS_9allocatorIS2_EEEEE10pointer_toB8ne180100ERS5_, symObjAddr: 0xA3E8, symBinAddr: 0x10000B394, symSize: 0x14 }
  - { offsetInCU: 0x17DAE, offset: 0x17DAE, size: 0x8, addend: 0x0, symName: __ZNSt3__19allocatorINS_20__shared_ptr_emplaceI10lambertianNS0_IS2_EEEEE10deallocateB8ne180100EPS4_m, symObjAddr: 0xA3FC, symBinAddr: 0x10000B3A8, symSize: 0x44 }
  - { offsetInCU: 0x17DF0, offset: 0x17DF0, size: 0x8, addend: 0x0, symName: __ZNSt3__110shared_ptrI10lambertianEC1B8ne180100Ev, symObjAddr: 0xA440, symBinAddr: 0x10000B3EC, symSize: 0x2C }
  - { offsetInCU: 0x17E1A, offset: 0x17E1A, size: 0x8, addend: 0x0, symName: __ZNSt3__110shared_ptrI10lambertianE18__enable_weak_thisB8ne180100Ez, symObjAddr: 0xA46C, symBinAddr: 0x10000B418, symSize: 0x10 }
  - { offsetInCU: 0x17E41, offset: 0x17E41, size: 0x8, addend: 0x0, symName: __ZNSt3__110shared_ptrI10lambertianEC2B8ne180100Ev, symObjAddr: 0xA47C, symBinAddr: 0x10000B428, symSize: 0x1C }
  - { offsetInCU: 0x17E6B, offset: 0x17E6B, size: 0x8, addend: 0x0, symName: __ZNSt3__120__shared_ptr_emplaceI10lambertianNS_9allocatorIS1_EEE8_Storage10__get_elemB8ne180100Ev, symObjAddr: 0xA498, symBinAddr: 0x10000B444, symSize: 0x3C }
  - { offsetInCU: 0x17EBE, offset: 0x17EBE, size: 0x8, addend: 0x0, symName: __ZNSt3__117__compressed_pairINS_9allocatorI10lambertianEES2_E17__get_second_baseB8ne180100EPS4_, symObjAddr: 0xA4D4, symBinAddr: 0x10000B480, symSize: 0x14 }
  - { offsetInCU: 0x17EE1, offset: 0x17EE1, size: 0x8, addend: 0x0, symName: __ZNSt3__118__allocation_guardINS_9allocatorINS_20__shared_ptr_emplaceI10lambertianNS1_IS3_EEEEEEED2B8ne180100Ev, symObjAddr: 0xA4E8, symBinAddr: 0x10000B494, symSize: 0x2C }
  - { offsetInCU: 0x17F0B, offset: 0x17F0B, size: 0x8, addend: 0x0, symName: __ZNSt3__118__allocation_guardINS_9allocatorINS_20__shared_ptr_emplaceI10lambertianNS1_IS3_EEEEEEE9__destroyB8ne180100Ev, symObjAddr: 0xA514, symBinAddr: 0x10000B4C0, symSize: 0x4C }
  - { offsetInCU: 0x17F31, offset: 0x17F31, size: 0x8, addend: 0x0, symName: __ZNSt3__19allocatorI10lambertianEC2B8ne180100Ev, symObjAddr: 0xA560, symBinAddr: 0x10000B50C, symSize: 0x2C }
  - { offsetInCU: 0x17F5B, offset: 0x17F5B, size: 0x8, addend: 0x0, symName: __ZNSt3__116__non_trivial_ifILb1ENS_9allocatorI10lambertianEEEC2B8ne180100Ev, symObjAddr: 0xA58C, symBinAddr: 0x10000B538, symSize: 0x14 }
  - { offsetInCU: 0x17F85, offset: 0x17F85, size: 0x8, addend: 0x0, symName: __ZNSt3__110shared_ptrI10lambertianED2B8ne180100Ev, symObjAddr: 0xA5A0, symBinAddr: 0x10000B54C, symSize: 0x54 }
  - { offsetInCU: 0x17FAF, offset: 0x17FAF, size: 0x8, addend: 0x0, symName: __ZNSt3__19allocatorI6sphereEC1B8ne180100Ev, symObjAddr: 0xA69C, symBinAddr: 0x10000B648, symSize: 0x2C }
  - { offsetInCU: 0x18025, offset: 0x18025, size: 0x8, addend: 0x0, symName: __ZNSt3__118__allocation_guardINS_9allocatorINS_20__shared_ptr_emplaceI6sphereNS1_IS3_EEEEEEEC1B8ne180100IS4_EET_m, symObjAddr: 0xA6C8, symBinAddr: 0x10000B674, symSize: 0x34 }
  - { offsetInCU: 0x18074, offset: 0x18074, size: 0x8, addend: 0x0, symName: __ZNKSt3__118__allocation_guardINS_9allocatorINS_20__shared_ptr_emplaceI6sphereNS1_IS3_EEEEEEE5__getB8ne180100Ev, symObjAddr: 0xA6FC, symBinAddr: 0x10000B6A8, symSize: 0x18 }
  - { offsetInCU: 0x180A0, offset: 0x180A0, size: 0x8, addend: 0x0, symName: __ZNSt3__120__shared_ptr_emplaceI6sphereNS_9allocatorIS1_EEEC1B8ne180100IJ4vec3iRNS_10shared_ptrI10lambertianEEES3_Li0EEES3_DpOT_, symObjAddr: 0xA714, symBinAddr: 0x10000B6C0, symSize: 0x44 }
  - { offsetInCU: 0x1812A, offset: 0x1812A, size: 0x8, addend: 0x0, symName: __ZNSt3__118__allocation_guardINS_9allocatorINS_20__shared_ptr_emplaceI6sphereNS1_IS3_EEEEEEE13__release_ptrB8ne180100Ev, symObjAddr: 0xA758, symBinAddr: 0x10000B704, symSize: 0x24 }
  - { offsetInCU: 0x1815E, offset: 0x1815E, size: 0x8, addend: 0x0, symName: __ZNSt3__110shared_ptrI6sphereE27__create_with_control_blockB8ne180100IS1_NS_20__shared_ptr_emplaceIS1_NS_9allocatorIS1_EEEEEES2_PT_PT0_, symObjAddr: 0xA77C, symBinAddr: 0x10000B728, symSize: 0xA4 }
  - { offsetInCU: 0x181B3, offset: 0x181B3, size: 0x8, addend: 0x0, symName: __ZNSt3__120__shared_ptr_emplaceI6sphereNS_9allocatorIS1_EEE10__get_elemB8ne180100Ev, symObjAddr: 0xA820, symBinAddr: 0x10000B7CC, symSize: 0x28 }
  - { offsetInCU: 0x181D9, offset: 0x181D9, size: 0x8, addend: 0x0, symName: __ZNSt3__118__allocation_guardINS_9allocatorINS_20__shared_ptr_emplaceI6sphereNS1_IS3_EEEEEEED1B8ne180100Ev, symObjAddr: 0xA848, symBinAddr: 0x10000B7F4, symSize: 0x2C }
  - { offsetInCU: 0x18203, offset: 0x18203, size: 0x8, addend: 0x0, symName: __ZNSt3__118__allocation_guardINS_9allocatorINS_20__shared_ptr_emplaceI6sphereNS1_IS3_EEEEEEEC2B8ne180100IS4_EET_m, symObjAddr: 0xA874, symBinAddr: 0x10000B820, symSize: 0x50 }
  - { offsetInCU: 0x18252, offset: 0x18252, size: 0x8, addend: 0x0, symName: __ZNSt3__19allocatorINS_20__shared_ptr_emplaceI6sphereNS0_IS2_EEEEEC1B8ne180100IS2_EERKNS0_IT_EE, symObjAddr: 0xA8C4, symBinAddr: 0x10000B870, symSize: 0x34 }
  - { offsetInCU: 0x18290, offset: 0x18290, size: 0x8, addend: 0x0, symName: __ZNSt3__116allocator_traitsINS_9allocatorINS_20__shared_ptr_emplaceI6sphereNS1_IS3_EEEEEEE8allocateB8ne180100ERS6_m, symObjAddr: 0xA8F8, symBinAddr: 0x10000B8A4, symSize: 0x2C }
  - { offsetInCU: 0x182C3, offset: 0x182C3, size: 0x8, addend: 0x0, symName: __ZNSt3__19allocatorINS_20__shared_ptr_emplaceI6sphereNS0_IS2_EEEEEC2B8ne180100IS2_EERKNS0_IT_EE, symObjAddr: 0xA924, symBinAddr: 0x10000B8D0, symSize: 0x30 }
  - { offsetInCU: 0x18301, offset: 0x18301, size: 0x8, addend: 0x0, symName: __ZNSt3__116__non_trivial_ifILb1ENS_9allocatorINS_20__shared_ptr_emplaceI6sphereNS1_IS3_EEEEEEEC2B8ne180100Ev, symObjAddr: 0xA954, symBinAddr: 0x10000B900, symSize: 0x14 }
  - { offsetInCU: 0x1832B, offset: 0x1832B, size: 0x8, addend: 0x0, symName: __ZNSt3__19allocatorINS_20__shared_ptr_emplaceI6sphereNS0_IS2_EEEEE8allocateB8ne180100Em, symObjAddr: 0xA968, symBinAddr: 0x10000B914, symSize: 0x5C }
  - { offsetInCU: 0x18369, offset: 0x18369, size: 0x8, addend: 0x0, symName: __ZNSt3__116allocator_traitsINS_9allocatorINS_20__shared_ptr_emplaceI6sphereNS1_IS3_EEEEEEE8max_sizeB8ne180100IS6_vEEmRKS6_, symObjAddr: 0xA9C4, symBinAddr: 0x10000B970, symSize: 0x24 }
  - { offsetInCU: 0x18397, offset: 0x18397, size: 0x8, addend: 0x0, symName: __ZNKSt3__19allocatorINS_20__shared_ptr_emplaceI6sphereNS0_IS2_EEEEE8max_sizeB8ne180100Ev, symObjAddr: 0xA9E8, symBinAddr: 0x10000B994, symSize: 0x18 }
  - { offsetInCU: 0x183BD, offset: 0x183BD, size: 0x8, addend: 0x0, symName: __ZNSt3__120__shared_ptr_emplaceI6sphereNS_9allocatorIS1_EEEC2B8ne180100IJ4vec3iRNS_10shared_ptrI10lambertianEEES3_Li0EEES3_DpOT_, symObjAddr: 0xAA00, symBinAddr: 0x10000B9AC, symSize: 0xD8 }
  - { offsetInCU: 0x18468, offset: 0x18468, size: 0x8, addend: 0x0, symName: __ZNSt3__120__shared_ptr_emplaceI6sphereNS_9allocatorIS1_EEE8_StorageC1B8ne180100EOS3_, symObjAddr: 0xAAD8, symBinAddr: 0x10000BA84, symSize: 0x34 }
  - { offsetInCU: 0x184A1, offset: 0x184A1, size: 0x8, addend: 0x0, symName: __ZNSt3__120__shared_ptr_emplaceI6sphereNS_9allocatorIS1_EEE11__get_allocB8ne180100Ev, symObjAddr: 0xAB0C, symBinAddr: 0x10000BAB8, symSize: 0x28 }
  - { offsetInCU: 0x184CC, offset: 0x184CC, size: 0x8, addend: 0x0, symName: __ZNSt3__116allocator_traitsINS_9allocatorI6sphereEEE9constructB8ne180100IS2_J4vec3iRNS_10shared_ptrI10lambertianEEEvEEvRS3_PT_DpOT0_, symObjAddr: 0xAB34, symBinAddr: 0x10000BAE0, symSize: 0x44 }
  - { offsetInCU: 0x1854B, offset: 0x1854B, size: 0x8, addend: 0x0, symName: __ZNSt3__120__shared_ptr_emplaceI6sphereNS_9allocatorIS1_EEE8_StorageD1B8ne180100Ev, symObjAddr: 0xAB78, symBinAddr: 0x10000BB24, symSize: 0x2C }
  - { offsetInCU: 0x18575, offset: 0x18575, size: 0x8, addend: 0x0, symName: __ZNSt3__120__shared_ptr_emplaceI6sphereNS_9allocatorIS1_EEED1Ev, symObjAddr: 0xABA4, symBinAddr: 0x10000BB50, symSize: 0x2C }
  - { offsetInCU: 0x185A1, offset: 0x185A1, size: 0x8, addend: 0x0, symName: __ZNSt3__120__shared_ptr_emplaceI6sphereNS_9allocatorIS1_EEED0Ev, symObjAddr: 0xABD0, symBinAddr: 0x10000BB7C, symSize: 0x30 }
  - { offsetInCU: 0x185CD, offset: 0x185CD, size: 0x8, addend: 0x0, symName: __ZNSt3__120__shared_ptr_emplaceI6sphereNS_9allocatorIS1_EEE16__on_zero_sharedEv, symObjAddr: 0xAC00, symBinAddr: 0x10000BBAC, symSize: 0x24 }
  - { offsetInCU: 0x185F3, offset: 0x185F3, size: 0x8, addend: 0x0, symName: __ZNSt3__120__shared_ptr_emplaceI6sphereNS_9allocatorIS1_EEE21__on_zero_shared_weakEv, symObjAddr: 0xAC24, symBinAddr: 0x10000BBD0, symSize: 0x5C }
  - { offsetInCU: 0x18634, offset: 0x18634, size: 0x8, addend: 0x0, symName: __ZNSt3__120__shared_ptr_emplaceI6sphereNS_9allocatorIS1_EEE8_StorageC2B8ne180100EOS3_, symObjAddr: 0xAC80, symBinAddr: 0x10000BC2C, symSize: 0x30 }
  - { offsetInCU: 0x1866D, offset: 0x1866D, size: 0x8, addend: 0x0, symName: __ZNSt3__120__shared_ptr_emplaceI6sphereNS_9allocatorIS1_EEE8_Storage11__get_allocB8ne180100Ev, symObjAddr: 0xACB0, symBinAddr: 0x10000BC5C, symSize: 0x3C }
  - { offsetInCU: 0x186C0, offset: 0x186C0, size: 0x8, addend: 0x0, symName: __ZNSt3__117__compressed_pairINS_9allocatorI6sphereEES2_E16__get_first_baseB8ne180100EPS4_, symObjAddr: 0xACEC, symBinAddr: 0x10000BC98, symSize: 0x14 }
  - { offsetInCU: 0x186E3, offset: 0x186E3, size: 0x8, addend: 0x0, symName: __ZNSt3__19allocatorI6sphereE9constructB8ne180100IS1_J4vec3iRNS_10shared_ptrI10lambertianEEEEEvPT_DpOT0_, symObjAddr: 0xAD00, symBinAddr: 0x10000BCAC, symSize: 0xA4 }
  - { offsetInCU: 0x1875F, offset: 0x1875F, size: 0x8, addend: 0x0, symName: __ZN6sphereC1ERK4vec3dNSt3__110shared_ptrI8materialEE, symObjAddr: 0xADA4, symBinAddr: 0x10000BD50, symSize: 0x44 }
  - { offsetInCU: 0x187B4, offset: 0x187B4, size: 0x8, addend: 0x0, symName: __ZN6sphereC2ERK4vec3dNSt3__110shared_ptrI8materialEE, symObjAddr: 0xADE8, symBinAddr: 0x10000BD94, symSize: 0x8C }
  - { offsetInCU: 0x18809, offset: 0x18809, size: 0x8, addend: 0x0, symName: __ZN6sphereD1Ev, symObjAddr: 0xAEAC, symBinAddr: 0x10000BE58, symSize: 0x2C }
  - { offsetInCU: 0x18835, offset: 0x18835, size: 0x8, addend: 0x0, symName: __ZN6sphereD0Ev, symObjAddr: 0xAED8, symBinAddr: 0x10000BE84, symSize: 0x30 }
  - { offsetInCU: 0x18861, offset: 0x18861, size: 0x8, addend: 0x0, symName: __ZNK6sphere3hitERK3ray8intervalR10hit_record, symObjAddr: 0xAF08, symBinAddr: 0x10000BEB4, symSize: 0x218 }
  - { offsetInCU: 0x18928, offset: 0x18928, size: 0x8, addend: 0x0, symName: __ZNK6sphere4minsEv, symObjAddr: 0xB120, symBinAddr: 0x10000C0CC, symSize: 0x64 }
  - { offsetInCU: 0x1894E, offset: 0x1894E, size: 0x8, addend: 0x0, symName: __ZNK6sphere4maxsEv, symObjAddr: 0xB184, symBinAddr: 0x10000C130, symSize: 0x64 }
  - { offsetInCU: 0x18974, offset: 0x18974, size: 0x8, addend: 0x0, symName: __ZNK6sphere4centEv, symObjAddr: 0xB1E8, symBinAddr: 0x10000C194, symSize: 0x30 }
  - { offsetInCU: 0x1899A, offset: 0x1899A, size: 0x8, addend: 0x0, symName: __ZN6sphereD2Ev, symObjAddr: 0xB238, symBinAddr: 0x10000C1E4, symSize: 0x48 }
  - { offsetInCU: 0x189C6, offset: 0x189C6, size: 0x8, addend: 0x0, symName: __ZNK8interval9surroundsEd, symObjAddr: 0xB280, symBinAddr: 0x10000C22C, symSize: 0x60 }
  - { offsetInCU: 0x189FA, offset: 0x189FA, size: 0x8, addend: 0x0, symName: __ZNSt3__120__shared_ptr_emplaceI6sphereNS_9allocatorIS1_EEE8_StorageD2B8ne180100Ev, symObjAddr: 0xB2E0, symBinAddr: 0x10000C28C, symSize: 0x2C }
  - { offsetInCU: 0x18A24, offset: 0x18A24, size: 0x8, addend: 0x0, symName: __ZNSt3__120__shared_ptr_emplaceI6sphereNS_9allocatorIS1_EEED2Ev, symObjAddr: 0xB30C, symBinAddr: 0x10000C2B8, symSize: 0x48 }
  - { offsetInCU: 0x18A50, offset: 0x18A50, size: 0x8, addend: 0x0, symName: __ZNSt3__120__shared_ptr_emplaceI6sphereNS_9allocatorIS1_EEE21__on_zero_shared_implB8ne180100IS3_Li0EEEvv, symObjAddr: 0xB354, symBinAddr: 0x10000C300, symSize: 0x44 }
  - { offsetInCU: 0x18AA0, offset: 0x18AA0, size: 0x8, addend: 0x0, symName: __ZNSt3__116allocator_traitsINS_9allocatorI6sphereEEE7destroyB8ne180100IS2_vEEvRS3_PT_, symObjAddr: 0xB398, symBinAddr: 0x10000C344, symSize: 0x2C }
  - { offsetInCU: 0x18ADD, offset: 0x18ADD, size: 0x8, addend: 0x0, symName: __ZNSt3__19allocatorI6sphereE7destroyB8ne180100EPS1_, symObjAddr: 0xB3C4, symBinAddr: 0x10000C370, symSize: 0x30 }
  - { offsetInCU: 0x18B11, offset: 0x18B11, size: 0x8, addend: 0x0, symName: __ZNSt3__116allocator_traitsINS_9allocatorINS_20__shared_ptr_emplaceI6sphereNS1_IS3_EEEEEEE10deallocateB8ne180100ERS6_PS5_m, symObjAddr: 0xB3F4, symBinAddr: 0x10000C3A0, symSize: 0x34 }
  - { offsetInCU: 0x18B53, offset: 0x18B53, size: 0x8, addend: 0x0, symName: __ZNSt3__114pointer_traitsIPNS_20__shared_ptr_emplaceI6sphereNS_9allocatorIS2_EEEEE10pointer_toB8ne180100ERS5_, symObjAddr: 0xB428, symBinAddr: 0x10000C3D4, symSize: 0x14 }
  - { offsetInCU: 0x18B76, offset: 0x18B76, size: 0x8, addend: 0x0, symName: __ZNSt3__19allocatorINS_20__shared_ptr_emplaceI6sphereNS0_IS2_EEEEE10deallocateB8ne180100EPS4_m, symObjAddr: 0xB43C, symBinAddr: 0x10000C3E8, symSize: 0x44 }
  - { offsetInCU: 0x18BB8, offset: 0x18BB8, size: 0x8, addend: 0x0, symName: __ZNSt3__110shared_ptrI6sphereEC1B8ne180100Ev, symObjAddr: 0xB480, symBinAddr: 0x10000C42C, symSize: 0x2C }
  - { offsetInCU: 0x18BE2, offset: 0x18BE2, size: 0x8, addend: 0x0, symName: __ZNSt3__110shared_ptrI6sphereE18__enable_weak_thisB8ne180100Ez, symObjAddr: 0xB4AC, symBinAddr: 0x10000C458, symSize: 0x10 }
  - { offsetInCU: 0x18C09, offset: 0x18C09, size: 0x8, addend: 0x0, symName: __ZNSt3__110shared_ptrI6sphereEC2B8ne180100Ev, symObjAddr: 0xB4BC, symBinAddr: 0x10000C468, symSize: 0x1C }
  - { offsetInCU: 0x18C33, offset: 0x18C33, size: 0x8, addend: 0x0, symName: __ZNSt3__120__shared_ptr_emplaceI6sphereNS_9allocatorIS1_EEE8_Storage10__get_elemB8ne180100Ev, symObjAddr: 0xB4D8, symBinAddr: 0x10000C484, symSize: 0x3C }
  - { offsetInCU: 0x18C86, offset: 0x18C86, size: 0x8, addend: 0x0, symName: __ZNSt3__117__compressed_pairINS_9allocatorI6sphereEES2_E17__get_second_baseB8ne180100EPS4_, symObjAddr: 0xB514, symBinAddr: 0x10000C4C0, symSize: 0x14 }
  - { offsetInCU: 0x18CA9, offset: 0x18CA9, size: 0x8, addend: 0x0, symName: __ZNSt3__118__allocation_guardINS_9allocatorINS_20__shared_ptr_emplaceI6sphereNS1_IS3_EEEEEEED2B8ne180100Ev, symObjAddr: 0xB528, symBinAddr: 0x10000C4D4, symSize: 0x2C }
  - { offsetInCU: 0x18CD3, offset: 0x18CD3, size: 0x8, addend: 0x0, symName: __ZNSt3__118__allocation_guardINS_9allocatorINS_20__shared_ptr_emplaceI6sphereNS1_IS3_EEEEEEE9__destroyB8ne180100Ev, symObjAddr: 0xB554, symBinAddr: 0x10000C500, symSize: 0x4C }
  - { offsetInCU: 0x18CF9, offset: 0x18CF9, size: 0x8, addend: 0x0, symName: __ZNSt3__19allocatorI6sphereEC2B8ne180100Ev, symObjAddr: 0xB5A0, symBinAddr: 0x10000C54C, symSize: 0x2C }
  - { offsetInCU: 0x18D23, offset: 0x18D23, size: 0x8, addend: 0x0, symName: __ZNSt3__116__non_trivial_ifILb1ENS_9allocatorI6sphereEEEC2B8ne180100Ev, symObjAddr: 0xB5CC, symBinAddr: 0x10000C578, symSize: 0x14 }
  - { offsetInCU: 0x18D4D, offset: 0x18D4D, size: 0x8, addend: 0x0, symName: __ZNSt3__110shared_ptrI6sphereED2B8ne180100Ev, symObjAddr: 0xB5E0, symBinAddr: 0x10000C58C, symSize: 0x54 }
  - { offsetInCU: 0x18D77, offset: 0x18D77, size: 0x8, addend: 0x0, symName: __ZNSt3__110shared_ptrI8hittableEC2B8ne180100I6spherevEEONS0_IT_EE, symObjAddr: 0xB634, symBinAddr: 0x10000C5E0, symSize: 0x40 }
  - { offsetInCU: 0x18DBA, offset: 0x18DBA, size: 0x8, addend: 0x0, symName: __ZNSt3__120__shared_ptr_emplaceI10lambertianNS_9allocatorIS1_EEEC1B8ne180100IJR4vec3ES3_Li0EEES3_DpOT_, symObjAddr: 0xB70C, symBinAddr: 0x10000C6B8, symSize: 0x34 }
  - { offsetInCU: 0x18E1C, offset: 0x18E1C, size: 0x8, addend: 0x0, symName: __ZNSt3__120__shared_ptr_emplaceI10lambertianNS_9allocatorIS1_EEEC2B8ne180100IJR4vec3ES3_Li0EEES3_DpOT_, symObjAddr: 0xB740, symBinAddr: 0x10000C6EC, symSize: 0xC8 }
  - { offsetInCU: 0x18E9F, offset: 0x18E9F, size: 0x8, addend: 0x0, symName: __ZNSt3__116allocator_traitsINS_9allocatorI10lambertianEEE9constructB8ne180100IS2_JR4vec3EvEEvRS3_PT_DpOT0_, symObjAddr: 0xB808, symBinAddr: 0x10000C7B4, symSize: 0x34 }
  - { offsetInCU: 0x18EF6, offset: 0x18EF6, size: 0x8, addend: 0x0, symName: __ZNSt3__19allocatorI10lambertianE9constructB8ne180100IS1_JR4vec3EEEvPT_DpOT0_, symObjAddr: 0xB83C, symBinAddr: 0x10000C7E8, symSize: 0x30 }
  - { offsetInCU: 0x18F4C, offset: 0x18F4C, size: 0x8, addend: 0x0, symName: __ZNSt3__110shared_ptrI8materialEC1B8ne180100I10lambertianvEEONS0_IT_EE, symObjAddr: 0xB86C, symBinAddr: 0x10000C818, symSize: 0x34 }
  - { offsetInCU: 0x18F8F, offset: 0x18F8F, size: 0x8, addend: 0x0, symName: __ZNSt3__110shared_ptrI8materialEC2B8ne180100I10lambertianvEEONS0_IT_EE, symObjAddr: 0xB8A0, symBinAddr: 0x10000C84C, symSize: 0x40 }
  - { offsetInCU: 0x18FD8, offset: 0x18FD8, size: 0x8, addend: 0x0, symName: __ZNSt3__120__shared_ptr_emplaceI6sphereNS_9allocatorIS1_EEEC1B8ne180100IJR4vec3dRNS_10shared_ptrI8materialEEES3_Li0EEES3_DpOT_, symObjAddr: 0xB988, symBinAddr: 0x10000C934, symSize: 0x44 }
  - { offsetInCU: 0x19062, offset: 0x19062, size: 0x8, addend: 0x0, symName: __ZNSt3__120__shared_ptr_emplaceI6sphereNS_9allocatorIS1_EEEC2B8ne180100IJR4vec3dRNS_10shared_ptrI8materialEEES3_Li0EEES3_DpOT_, symObjAddr: 0xB9CC, symBinAddr: 0x10000C978, symSize: 0xD8 }
  - { offsetInCU: 0x1910D, offset: 0x1910D, size: 0x8, addend: 0x0, symName: __ZNSt3__116allocator_traitsINS_9allocatorI6sphereEEE9constructB8ne180100IS2_JR4vec3dRNS_10shared_ptrI8materialEEEvEEvRS3_PT_DpOT0_, symObjAddr: 0xBAA4, symBinAddr: 0x10000CA50, symSize: 0x44 }
  - { offsetInCU: 0x1918C, offset: 0x1918C, size: 0x8, addend: 0x0, symName: __ZNSt3__19allocatorI6sphereE9constructB8ne180100IS1_JR4vec3dRNS_10shared_ptrI8materialEEEEEvPT_DpOT0_, symObjAddr: 0xBAE8, symBinAddr: 0x10000CA94, symSize: 0x98 }
  - { offsetInCU: 0x19208, offset: 0x19208, size: 0x8, addend: 0x0, symName: __ZNSt3__19allocatorI5metalEC1B8ne180100Ev, symObjAddr: 0xBC20, symBinAddr: 0x10000CBCC, symSize: 0x2C }
  - { offsetInCU: 0x1927E, offset: 0x1927E, size: 0x8, addend: 0x0, symName: __ZNSt3__118__allocation_guardINS_9allocatorINS_20__shared_ptr_emplaceI5metalNS1_IS3_EEEEEEEC1B8ne180100IS4_EET_m, symObjAddr: 0xBC4C, symBinAddr: 0x10000CBF8, symSize: 0x34 }
  - { offsetInCU: 0x192CD, offset: 0x192CD, size: 0x8, addend: 0x0, symName: __ZNKSt3__118__allocation_guardINS_9allocatorINS_20__shared_ptr_emplaceI5metalNS1_IS3_EEEEEEE5__getB8ne180100Ev, symObjAddr: 0xBC80, symBinAddr: 0x10000CC2C, symSize: 0x18 }
  - { offsetInCU: 0x192F3, offset: 0x192F3, size: 0x8, addend: 0x0, symName: __ZNSt3__120__shared_ptr_emplaceI5metalNS_9allocatorIS1_EEEC1B8ne180100IJR4vec3RdES3_Li0EEES3_DpOT_, symObjAddr: 0xBC98, symBinAddr: 0x10000CC44, symSize: 0x3C }
  - { offsetInCU: 0x19369, offset: 0x19369, size: 0x8, addend: 0x0, symName: __ZNSt3__118__allocation_guardINS_9allocatorINS_20__shared_ptr_emplaceI5metalNS1_IS3_EEEEEEE13__release_ptrB8ne180100Ev, symObjAddr: 0xBCD4, symBinAddr: 0x10000CC80, symSize: 0x24 }
  - { offsetInCU: 0x1939D, offset: 0x1939D, size: 0x8, addend: 0x0, symName: __ZNSt3__110shared_ptrI5metalE27__create_with_control_blockB8ne180100IS1_NS_20__shared_ptr_emplaceIS1_NS_9allocatorIS1_EEEEEES2_PT_PT0_, symObjAddr: 0xBCF8, symBinAddr: 0x10000CCA4, symSize: 0xA4 }
  - { offsetInCU: 0x193F2, offset: 0x193F2, size: 0x8, addend: 0x0, symName: __ZNSt3__120__shared_ptr_emplaceI5metalNS_9allocatorIS1_EEE10__get_elemB8ne180100Ev, symObjAddr: 0xBD9C, symBinAddr: 0x10000CD48, symSize: 0x28 }
  - { offsetInCU: 0x19418, offset: 0x19418, size: 0x8, addend: 0x0, symName: __ZNSt3__118__allocation_guardINS_9allocatorINS_20__shared_ptr_emplaceI5metalNS1_IS3_EEEEEEED1B8ne180100Ev, symObjAddr: 0xBDC4, symBinAddr: 0x10000CD70, symSize: 0x2C }
  - { offsetInCU: 0x19442, offset: 0x19442, size: 0x8, addend: 0x0, symName: __ZNSt3__118__allocation_guardINS_9allocatorINS_20__shared_ptr_emplaceI5metalNS1_IS3_EEEEEEEC2B8ne180100IS4_EET_m, symObjAddr: 0xBDF0, symBinAddr: 0x10000CD9C, symSize: 0x50 }
  - { offsetInCU: 0x19491, offset: 0x19491, size: 0x8, addend: 0x0, symName: __ZNSt3__19allocatorINS_20__shared_ptr_emplaceI5metalNS0_IS2_EEEEEC1B8ne180100IS2_EERKNS0_IT_EE, symObjAddr: 0xBE40, symBinAddr: 0x10000CDEC, symSize: 0x34 }
  - { offsetInCU: 0x194CF, offset: 0x194CF, size: 0x8, addend: 0x0, symName: __ZNSt3__116allocator_traitsINS_9allocatorINS_20__shared_ptr_emplaceI5metalNS1_IS3_EEEEEEE8allocateB8ne180100ERS6_m, symObjAddr: 0xBE74, symBinAddr: 0x10000CE20, symSize: 0x2C }
  - { offsetInCU: 0x19502, offset: 0x19502, size: 0x8, addend: 0x0, symName: __ZNSt3__19allocatorINS_20__shared_ptr_emplaceI5metalNS0_IS2_EEEEEC2B8ne180100IS2_EERKNS0_IT_EE, symObjAddr: 0xBEA0, symBinAddr: 0x10000CE4C, symSize: 0x30 }
  - { offsetInCU: 0x19540, offset: 0x19540, size: 0x8, addend: 0x0, symName: __ZNSt3__116__non_trivial_ifILb1ENS_9allocatorINS_20__shared_ptr_emplaceI5metalNS1_IS3_EEEEEEEC2B8ne180100Ev, symObjAddr: 0xBED0, symBinAddr: 0x10000CE7C, symSize: 0x14 }
  - { offsetInCU: 0x1956A, offset: 0x1956A, size: 0x8, addend: 0x0, symName: __ZNSt3__19allocatorINS_20__shared_ptr_emplaceI5metalNS0_IS2_EEEEE8allocateB8ne180100Em, symObjAddr: 0xBEE4, symBinAddr: 0x10000CE90, symSize: 0x58 }
  - { offsetInCU: 0x195A8, offset: 0x195A8, size: 0x8, addend: 0x0, symName: __ZNSt3__116allocator_traitsINS_9allocatorINS_20__shared_ptr_emplaceI5metalNS1_IS3_EEEEEEE8max_sizeB8ne180100IS6_vEEmRKS6_, symObjAddr: 0xBF3C, symBinAddr: 0x10000CEE8, symSize: 0x24 }
  - { offsetInCU: 0x195D6, offset: 0x195D6, size: 0x8, addend: 0x0, symName: __ZNKSt3__19allocatorINS_20__shared_ptr_emplaceI5metalNS0_IS2_EEEEE8max_sizeB8ne180100Ev, symObjAddr: 0xBF60, symBinAddr: 0x10000CF0C, symSize: 0x14 }
  - { offsetInCU: 0x195FC, offset: 0x195FC, size: 0x8, addend: 0x0, symName: __ZNSt3__120__shared_ptr_emplaceI5metalNS_9allocatorIS1_EEEC2B8ne180100IJR4vec3RdES3_Li0EEES3_DpOT_, symObjAddr: 0xBF74, symBinAddr: 0x10000CF20, symSize: 0xD0 }
  - { offsetInCU: 0x19693, offset: 0x19693, size: 0x8, addend: 0x0, symName: __ZNSt3__120__shared_ptr_emplaceI5metalNS_9allocatorIS1_EEE8_StorageC1B8ne180100EOS3_, symObjAddr: 0xC044, symBinAddr: 0x10000CFF0, symSize: 0x34 }
  - { offsetInCU: 0x196CC, offset: 0x196CC, size: 0x8, addend: 0x0, symName: __ZNSt3__120__shared_ptr_emplaceI5metalNS_9allocatorIS1_EEE11__get_allocB8ne180100Ev, symObjAddr: 0xC078, symBinAddr: 0x10000D024, symSize: 0x28 }
  - { offsetInCU: 0x196F7, offset: 0x196F7, size: 0x8, addend: 0x0, symName: __ZNSt3__116allocator_traitsINS_9allocatorI5metalEEE9constructB8ne180100IS2_JR4vec3RdEvEEvRS3_PT_DpOT0_, symObjAddr: 0xC0A0, symBinAddr: 0x10000D04C, symSize: 0x3C }
  - { offsetInCU: 0x19762, offset: 0x19762, size: 0x8, addend: 0x0, symName: __ZNSt3__120__shared_ptr_emplaceI5metalNS_9allocatorIS1_EEE8_StorageD1B8ne180100Ev, symObjAddr: 0xC0DC, symBinAddr: 0x10000D088, symSize: 0x2C }
  - { offsetInCU: 0x1978C, offset: 0x1978C, size: 0x8, addend: 0x0, symName: __ZNSt3__120__shared_ptr_emplaceI5metalNS_9allocatorIS1_EEED1Ev, symObjAddr: 0xC108, symBinAddr: 0x10000D0B4, symSize: 0x2C }
  - { offsetInCU: 0x197B8, offset: 0x197B8, size: 0x8, addend: 0x0, symName: __ZNSt3__120__shared_ptr_emplaceI5metalNS_9allocatorIS1_EEED0Ev, symObjAddr: 0xC134, symBinAddr: 0x10000D0E0, symSize: 0x30 }
  - { offsetInCU: 0x197E4, offset: 0x197E4, size: 0x8, addend: 0x0, symName: __ZNSt3__120__shared_ptr_emplaceI5metalNS_9allocatorIS1_EEE16__on_zero_sharedEv, symObjAddr: 0xC164, symBinAddr: 0x10000D110, symSize: 0x24 }
  - { offsetInCU: 0x1980A, offset: 0x1980A, size: 0x8, addend: 0x0, symName: __ZNSt3__120__shared_ptr_emplaceI5metalNS_9allocatorIS1_EEE21__on_zero_shared_weakEv, symObjAddr: 0xC188, symBinAddr: 0x10000D134, symSize: 0x5C }
  - { offsetInCU: 0x1984B, offset: 0x1984B, size: 0x8, addend: 0x0, symName: __ZNSt3__120__shared_ptr_emplaceI5metalNS_9allocatorIS1_EEE8_StorageC2B8ne180100EOS3_, symObjAddr: 0xC1E4, symBinAddr: 0x10000D190, symSize: 0x30 }
  - { offsetInCU: 0x19884, offset: 0x19884, size: 0x8, addend: 0x0, symName: __ZNSt3__120__shared_ptr_emplaceI5metalNS_9allocatorIS1_EEE8_Storage11__get_allocB8ne180100Ev, symObjAddr: 0xC214, symBinAddr: 0x10000D1C0, symSize: 0x3C }
  - { offsetInCU: 0x198D7, offset: 0x198D7, size: 0x8, addend: 0x0, symName: __ZNSt3__117__compressed_pairINS_9allocatorI5metalEES2_E16__get_first_baseB8ne180100EPS4_, symObjAddr: 0xC250, symBinAddr: 0x10000D1FC, symSize: 0x14 }
  - { offsetInCU: 0x198FA, offset: 0x198FA, size: 0x8, addend: 0x0, symName: __ZNSt3__19allocatorI5metalE9constructB8ne180100IS1_JR4vec3RdEEEvPT_DpOT0_, symObjAddr: 0xC264, symBinAddr: 0x10000D210, symSize: 0x3C }
  - { offsetInCU: 0x19963, offset: 0x19963, size: 0x8, addend: 0x0, symName: __ZN5metalC1ERK4vec3d, symObjAddr: 0xC2A0, symBinAddr: 0x10000D24C, symSize: 0x3C }
  - { offsetInCU: 0x199A9, offset: 0x199A9, size: 0x8, addend: 0x0, symName: __ZN5metalC2ERK4vec3d, symObjAddr: 0xC2DC, symBinAddr: 0x10000D288, symSize: 0xA8 }
  - { offsetInCU: 0x199EF, offset: 0x199EF, size: 0x8, addend: 0x0, symName: __ZN5metalD1Ev, symObjAddr: 0xC384, symBinAddr: 0x10000D330, symSize: 0x2C }
  - { offsetInCU: 0x19A1B, offset: 0x19A1B, size: 0x8, addend: 0x0, symName: __ZN5metalD0Ev, symObjAddr: 0xC3B0, symBinAddr: 0x10000D35C, symSize: 0x30 }
  - { offsetInCU: 0x19A47, offset: 0x19A47, size: 0x8, addend: 0x0, symName: __ZNK5metal7scatterERK3rayRK10hit_recordR4vec3RS0_, symObjAddr: 0xC3E0, symBinAddr: 0x10000D38C, symSize: 0x138 }
  - { offsetInCU: 0x19AB4, offset: 0x19AB4, size: 0x8, addend: 0x0, symName: __ZN5metalD2Ev, symObjAddr: 0xC518, symBinAddr: 0x10000D4C4, symSize: 0x2C }
  - { offsetInCU: 0x19ADF, offset: 0x19ADF, size: 0x8, addend: 0x0, symName: __Z7reflectRK4vec3S1_, symObjAddr: 0xC544, symBinAddr: 0x10000D4F0, symSize: 0x78 }
  - { offsetInCU: 0x19B1A, offset: 0x19B1A, size: 0x8, addend: 0x0, symName: __ZNSt3__120__shared_ptr_emplaceI5metalNS_9allocatorIS1_EEE8_StorageD2B8ne180100Ev, symObjAddr: 0xC5BC, symBinAddr: 0x10000D568, symSize: 0x2C }
  - { offsetInCU: 0x19B44, offset: 0x19B44, size: 0x8, addend: 0x0, symName: __ZNSt3__120__shared_ptr_emplaceI5metalNS_9allocatorIS1_EEED2Ev, symObjAddr: 0xC5E8, symBinAddr: 0x10000D594, symSize: 0x48 }
  - { offsetInCU: 0x19B70, offset: 0x19B70, size: 0x8, addend: 0x0, symName: __ZNSt3__120__shared_ptr_emplaceI5metalNS_9allocatorIS1_EEE21__on_zero_shared_implB8ne180100IS3_Li0EEEvv, symObjAddr: 0xC630, symBinAddr: 0x10000D5DC, symSize: 0x44 }
  - { offsetInCU: 0x19BC0, offset: 0x19BC0, size: 0x8, addend: 0x0, symName: __ZNSt3__116allocator_traitsINS_9allocatorI5metalEEE7destroyB8ne180100IS2_vEEvRS3_PT_, symObjAddr: 0xC674, symBinAddr: 0x10000D620, symSize: 0x2C }
  - { offsetInCU: 0x19BFD, offset: 0x19BFD, size: 0x8, addend: 0x0, symName: __ZNSt3__19allocatorI5metalE7destroyB8ne180100EPS1_, symObjAddr: 0xC6A0, symBinAddr: 0x10000D64C, symSize: 0x30 }
  - { offsetInCU: 0x19C31, offset: 0x19C31, size: 0x8, addend: 0x0, symName: __ZNSt3__116allocator_traitsINS_9allocatorINS_20__shared_ptr_emplaceI5metalNS1_IS3_EEEEEEE10deallocateB8ne180100ERS6_PS5_m, symObjAddr: 0xC6D0, symBinAddr: 0x10000D67C, symSize: 0x34 }
  - { offsetInCU: 0x19C73, offset: 0x19C73, size: 0x8, addend: 0x0, symName: __ZNSt3__114pointer_traitsIPNS_20__shared_ptr_emplaceI5metalNS_9allocatorIS2_EEEEE10pointer_toB8ne180100ERS5_, symObjAddr: 0xC704, symBinAddr: 0x10000D6B0, symSize: 0x14 }
  - { offsetInCU: 0x19C96, offset: 0x19C96, size: 0x8, addend: 0x0, symName: __ZNSt3__19allocatorINS_20__shared_ptr_emplaceI5metalNS0_IS2_EEEEE10deallocateB8ne180100EPS4_m, symObjAddr: 0xC718, symBinAddr: 0x10000D6C4, symSize: 0x40 }
  - { offsetInCU: 0x19CD8, offset: 0x19CD8, size: 0x8, addend: 0x0, symName: __ZNSt3__110shared_ptrI5metalEC1B8ne180100Ev, symObjAddr: 0xC758, symBinAddr: 0x10000D704, symSize: 0x2C }
  - { offsetInCU: 0x19D02, offset: 0x19D02, size: 0x8, addend: 0x0, symName: __ZNSt3__110shared_ptrI5metalE18__enable_weak_thisB8ne180100Ez, symObjAddr: 0xC784, symBinAddr: 0x10000D730, symSize: 0x10 }
  - { offsetInCU: 0x19D29, offset: 0x19D29, size: 0x8, addend: 0x0, symName: __ZNSt3__110shared_ptrI5metalEC2B8ne180100Ev, symObjAddr: 0xC794, symBinAddr: 0x10000D740, symSize: 0x1C }
  - { offsetInCU: 0x19D53, offset: 0x19D53, size: 0x8, addend: 0x0, symName: __ZNSt3__120__shared_ptr_emplaceI5metalNS_9allocatorIS1_EEE8_Storage10__get_elemB8ne180100Ev, symObjAddr: 0xC7B0, symBinAddr: 0x10000D75C, symSize: 0x3C }
  - { offsetInCU: 0x19DA6, offset: 0x19DA6, size: 0x8, addend: 0x0, symName: __ZNSt3__117__compressed_pairINS_9allocatorI5metalEES2_E17__get_second_baseB8ne180100EPS4_, symObjAddr: 0xC7EC, symBinAddr: 0x10000D798, symSize: 0x14 }
  - { offsetInCU: 0x19DC9, offset: 0x19DC9, size: 0x8, addend: 0x0, symName: __ZNSt3__118__allocation_guardINS_9allocatorINS_20__shared_ptr_emplaceI5metalNS1_IS3_EEEEEEED2B8ne180100Ev, symObjAddr: 0xC800, symBinAddr: 0x10000D7AC, symSize: 0x2C }
  - { offsetInCU: 0x19DF3, offset: 0x19DF3, size: 0x8, addend: 0x0, symName: __ZNSt3__118__allocation_guardINS_9allocatorINS_20__shared_ptr_emplaceI5metalNS1_IS3_EEEEEEE9__destroyB8ne180100Ev, symObjAddr: 0xC82C, symBinAddr: 0x10000D7D8, symSize: 0x4C }
  - { offsetInCU: 0x19E19, offset: 0x19E19, size: 0x8, addend: 0x0, symName: __ZNSt3__19allocatorI5metalEC2B8ne180100Ev, symObjAddr: 0xC878, symBinAddr: 0x10000D824, symSize: 0x2C }
  - { offsetInCU: 0x19E43, offset: 0x19E43, size: 0x8, addend: 0x0, symName: __ZNSt3__116__non_trivial_ifILb1ENS_9allocatorI5metalEEEC2B8ne180100Ev, symObjAddr: 0xC8A4, symBinAddr: 0x10000D850, symSize: 0x14 }
  - { offsetInCU: 0x19E6D, offset: 0x19E6D, size: 0x8, addend: 0x0, symName: __ZNSt3__110shared_ptrI5metalED2B8ne180100Ev, symObjAddr: 0xC8B8, symBinAddr: 0x10000D864, symSize: 0x54 }
  - { offsetInCU: 0x19E97, offset: 0x19E97, size: 0x8, addend: 0x0, symName: __ZNSt3__110shared_ptrI8materialEC1B8ne180100I5metalvEEONS0_IT_EE, symObjAddr: 0xC90C, symBinAddr: 0x10000D8B8, symSize: 0x34 }
  - { offsetInCU: 0x19EDA, offset: 0x19EDA, size: 0x8, addend: 0x0, symName: __ZNSt3__110shared_ptrI8materialEC2B8ne180100I5metalvEEONS0_IT_EE, symObjAddr: 0xC940, symBinAddr: 0x10000D8EC, symSize: 0x40 }
  - { offsetInCU: 0x19F1D, offset: 0x19F1D, size: 0x8, addend: 0x0, symName: __ZNSt3__19allocatorI10dielectricEC1B8ne180100Ev, symObjAddr: 0xCA18, symBinAddr: 0x10000D9C4, symSize: 0x2C }
  - { offsetInCU: 0x19F93, offset: 0x19F93, size: 0x8, addend: 0x0, symName: __ZNSt3__118__allocation_guardINS_9allocatorINS_20__shared_ptr_emplaceI10dielectricNS1_IS3_EEEEEEEC1B8ne180100IS4_EET_m, symObjAddr: 0xCA44, symBinAddr: 0x10000D9F0, symSize: 0x34 }
  - { offsetInCU: 0x19FE2, offset: 0x19FE2, size: 0x8, addend: 0x0, symName: __ZNKSt3__118__allocation_guardINS_9allocatorINS_20__shared_ptr_emplaceI10dielectricNS1_IS3_EEEEEEE5__getB8ne180100Ev, symObjAddr: 0xCA78, symBinAddr: 0x10000DA24, symSize: 0x18 }
  - { offsetInCU: 0x1A008, offset: 0x1A008, size: 0x8, addend: 0x0, symName: __ZNSt3__120__shared_ptr_emplaceI10dielectricNS_9allocatorIS1_EEEC1B8ne180100IJdES3_Li0EEES3_DpOT_, symObjAddr: 0xCA90, symBinAddr: 0x10000DA3C, symSize: 0x34 }
  - { offsetInCU: 0x1A06A, offset: 0x1A06A, size: 0x8, addend: 0x0, symName: __ZNSt3__118__allocation_guardINS_9allocatorINS_20__shared_ptr_emplaceI10dielectricNS1_IS3_EEEEEEE13__release_ptrB8ne180100Ev, symObjAddr: 0xCAC4, symBinAddr: 0x10000DA70, symSize: 0x24 }
  - { offsetInCU: 0x1A09E, offset: 0x1A09E, size: 0x8, addend: 0x0, symName: __ZNSt3__110shared_ptrI10dielectricE27__create_with_control_blockB8ne180100IS1_NS_20__shared_ptr_emplaceIS1_NS_9allocatorIS1_EEEEEES2_PT_PT0_, symObjAddr: 0xCAE8, symBinAddr: 0x10000DA94, symSize: 0xA4 }
  - { offsetInCU: 0x1A0F3, offset: 0x1A0F3, size: 0x8, addend: 0x0, symName: __ZNSt3__120__shared_ptr_emplaceI10dielectricNS_9allocatorIS1_EEE10__get_elemB8ne180100Ev, symObjAddr: 0xCB8C, symBinAddr: 0x10000DB38, symSize: 0x28 }
  - { offsetInCU: 0x1A119, offset: 0x1A119, size: 0x8, addend: 0x0, symName: __ZNSt3__118__allocation_guardINS_9allocatorINS_20__shared_ptr_emplaceI10dielectricNS1_IS3_EEEEEEED1B8ne180100Ev, symObjAddr: 0xCBB4, symBinAddr: 0x10000DB60, symSize: 0x2C }
  - { offsetInCU: 0x1A143, offset: 0x1A143, size: 0x8, addend: 0x0, symName: __ZNSt3__118__allocation_guardINS_9allocatorINS_20__shared_ptr_emplaceI10dielectricNS1_IS3_EEEEEEEC2B8ne180100IS4_EET_m, symObjAddr: 0xCBE0, symBinAddr: 0x10000DB8C, symSize: 0x50 }
  - { offsetInCU: 0x1A192, offset: 0x1A192, size: 0x8, addend: 0x0, symName: __ZNSt3__19allocatorINS_20__shared_ptr_emplaceI10dielectricNS0_IS2_EEEEEC1B8ne180100IS2_EERKNS0_IT_EE, symObjAddr: 0xCC30, symBinAddr: 0x10000DBDC, symSize: 0x34 }
  - { offsetInCU: 0x1A1D0, offset: 0x1A1D0, size: 0x8, addend: 0x0, symName: __ZNSt3__116allocator_traitsINS_9allocatorINS_20__shared_ptr_emplaceI10dielectricNS1_IS3_EEEEEEE8allocateB8ne180100ERS6_m, symObjAddr: 0xCC64, symBinAddr: 0x10000DC10, symSize: 0x2C }
  - { offsetInCU: 0x1A203, offset: 0x1A203, size: 0x8, addend: 0x0, symName: __ZNSt3__19allocatorINS_20__shared_ptr_emplaceI10dielectricNS0_IS2_EEEEEC2B8ne180100IS2_EERKNS0_IT_EE, symObjAddr: 0xCC90, symBinAddr: 0x10000DC3C, symSize: 0x30 }
  - { offsetInCU: 0x1A241, offset: 0x1A241, size: 0x8, addend: 0x0, symName: __ZNSt3__116__non_trivial_ifILb1ENS_9allocatorINS_20__shared_ptr_emplaceI10dielectricNS1_IS3_EEEEEEEC2B8ne180100Ev, symObjAddr: 0xCCC0, symBinAddr: 0x10000DC6C, symSize: 0x14 }
  - { offsetInCU: 0x1A26B, offset: 0x1A26B, size: 0x8, addend: 0x0, symName: __ZNSt3__19allocatorINS_20__shared_ptr_emplaceI10dielectricNS0_IS2_EEEEE8allocateB8ne180100Em, symObjAddr: 0xCCD4, symBinAddr: 0x10000DC80, symSize: 0x5C }
  - { offsetInCU: 0x1A2A9, offset: 0x1A2A9, size: 0x8, addend: 0x0, symName: __ZNSt3__116allocator_traitsINS_9allocatorINS_20__shared_ptr_emplaceI10dielectricNS1_IS3_EEEEEEE8max_sizeB8ne180100IS6_vEEmRKS6_, symObjAddr: 0xCD30, symBinAddr: 0x10000DCDC, symSize: 0x24 }
  - { offsetInCU: 0x1A2D7, offset: 0x1A2D7, size: 0x8, addend: 0x0, symName: __ZNKSt3__19allocatorINS_20__shared_ptr_emplaceI10dielectricNS0_IS2_EEEEE8max_sizeB8ne180100Ev, symObjAddr: 0xCD54, symBinAddr: 0x10000DD00, symSize: 0x18 }
  - { offsetInCU: 0x1A2FD, offset: 0x1A2FD, size: 0x8, addend: 0x0, symName: __ZNSt3__120__shared_ptr_emplaceI10dielectricNS_9allocatorIS1_EEEC2B8ne180100IJdES3_Li0EEES3_DpOT_, symObjAddr: 0xCD6C, symBinAddr: 0x10000DD18, symSize: 0xC8 }
  - { offsetInCU: 0x1A380, offset: 0x1A380, size: 0x8, addend: 0x0, symName: __ZNSt3__120__shared_ptr_emplaceI10dielectricNS_9allocatorIS1_EEE8_StorageC1B8ne180100EOS3_, symObjAddr: 0xCE34, symBinAddr: 0x10000DDE0, symSize: 0x34 }
  - { offsetInCU: 0x1A3B9, offset: 0x1A3B9, size: 0x8, addend: 0x0, symName: __ZNSt3__120__shared_ptr_emplaceI10dielectricNS_9allocatorIS1_EEE11__get_allocB8ne180100Ev, symObjAddr: 0xCE68, symBinAddr: 0x10000DE14, symSize: 0x28 }
  - { offsetInCU: 0x1A3E4, offset: 0x1A3E4, size: 0x8, addend: 0x0, symName: __ZNSt3__116allocator_traitsINS_9allocatorI10dielectricEEE9constructB8ne180100IS2_JdEvEEvRS3_PT_DpOT0_, symObjAddr: 0xCE90, symBinAddr: 0x10000DE3C, symSize: 0x34 }
  - { offsetInCU: 0x1A43B, offset: 0x1A43B, size: 0x8, addend: 0x0, symName: __ZNSt3__120__shared_ptr_emplaceI10dielectricNS_9allocatorIS1_EEE8_StorageD1B8ne180100Ev, symObjAddr: 0xCEC4, symBinAddr: 0x10000DE70, symSize: 0x2C }
  - { offsetInCU: 0x1A465, offset: 0x1A465, size: 0x8, addend: 0x0, symName: __ZNSt3__120__shared_ptr_emplaceI10dielectricNS_9allocatorIS1_EEED1Ev, symObjAddr: 0xCEF0, symBinAddr: 0x10000DE9C, symSize: 0x2C }
  - { offsetInCU: 0x1A491, offset: 0x1A491, size: 0x8, addend: 0x0, symName: __ZNSt3__120__shared_ptr_emplaceI10dielectricNS_9allocatorIS1_EEED0Ev, symObjAddr: 0xCF1C, symBinAddr: 0x10000DEC8, symSize: 0x30 }
  - { offsetInCU: 0x1A4BD, offset: 0x1A4BD, size: 0x8, addend: 0x0, symName: __ZNSt3__120__shared_ptr_emplaceI10dielectricNS_9allocatorIS1_EEE16__on_zero_sharedEv, symObjAddr: 0xCF4C, symBinAddr: 0x10000DEF8, symSize: 0x24 }
  - { offsetInCU: 0x1A4E3, offset: 0x1A4E3, size: 0x8, addend: 0x0, symName: __ZNSt3__120__shared_ptr_emplaceI10dielectricNS_9allocatorIS1_EEE21__on_zero_shared_weakEv, symObjAddr: 0xCF70, symBinAddr: 0x10000DF1C, symSize: 0x5C }
  - { offsetInCU: 0x1A524, offset: 0x1A524, size: 0x8, addend: 0x0, symName: __ZNSt3__120__shared_ptr_emplaceI10dielectricNS_9allocatorIS1_EEE8_StorageC2B8ne180100EOS3_, symObjAddr: 0xCFCC, symBinAddr: 0x10000DF78, symSize: 0x30 }
  - { offsetInCU: 0x1A55D, offset: 0x1A55D, size: 0x8, addend: 0x0, symName: __ZNSt3__120__shared_ptr_emplaceI10dielectricNS_9allocatorIS1_EEE8_Storage11__get_allocB8ne180100Ev, symObjAddr: 0xCFFC, symBinAddr: 0x10000DFA8, symSize: 0x3C }
  - { offsetInCU: 0x1A5B0, offset: 0x1A5B0, size: 0x8, addend: 0x0, symName: __ZNSt3__117__compressed_pairINS_9allocatorI10dielectricEES2_E16__get_first_baseB8ne180100EPS4_, symObjAddr: 0xD038, symBinAddr: 0x10000DFE4, symSize: 0x14 }
  - { offsetInCU: 0x1A5D3, offset: 0x1A5D3, size: 0x8, addend: 0x0, symName: __ZNSt3__19allocatorI10dielectricE9constructB8ne180100IS1_JdEEEvPT_DpOT0_, symObjAddr: 0xD04C, symBinAddr: 0x10000DFF8, symSize: 0x34 }
  - { offsetInCU: 0x1A629, offset: 0x1A629, size: 0x8, addend: 0x0, symName: __ZN10dielectricC1Ed, symObjAddr: 0xD080, symBinAddr: 0x10000E02C, symSize: 0x34 }
  - { offsetInCU: 0x1A661, offset: 0x1A661, size: 0x8, addend: 0x0, symName: __ZN10dielectricC2Ed, symObjAddr: 0xD0B4, symBinAddr: 0x10000E060, symSize: 0x50 }
  - { offsetInCU: 0x1A699, offset: 0x1A699, size: 0x8, addend: 0x0, symName: __ZN10dielectricD1Ev, symObjAddr: 0xD104, symBinAddr: 0x10000E0B0, symSize: 0x2C }
  - { offsetInCU: 0x1A6C5, offset: 0x1A6C5, size: 0x8, addend: 0x0, symName: __ZN10dielectricD0Ev, symObjAddr: 0xD130, symBinAddr: 0x10000E0DC, symSize: 0x30 }
  - { offsetInCU: 0x1A6F1, offset: 0x1A6F1, size: 0x8, addend: 0x0, symName: __ZNK10dielectric7scatterERK3rayRK10hit_recordR4vec3RS0_, symObjAddr: 0xD160, symBinAddr: 0x10000E10C, symSize: 0x1F0 }
  - { offsetInCU: 0x1A7A9, offset: 0x1A7A9, size: 0x8, addend: 0x0, symName: __ZN10dielectricD2Ev, symObjAddr: 0xD350, symBinAddr: 0x10000E2FC, symSize: 0x2C }
  - { offsetInCU: 0x1A7D5, offset: 0x1A7D5, size: 0x8, addend: 0x0, symName: __ZN10dielectric11reflectanceEdd, symObjAddr: 0xD37C, symBinAddr: 0x10000E328, symSize: 0x80 }
  - { offsetInCU: 0x1A813, offset: 0x1A813, size: 0x8, addend: 0x0, symName: __Z7refractRK4vec3S1_d, symObjAddr: 0xD3FC, symBinAddr: 0x10000E3A8, symSize: 0x108 }
  - { offsetInCU: 0x1A887, offset: 0x1A887, size: 0x8, addend: 0x0, symName: __ZNSt3__120__shared_ptr_emplaceI10dielectricNS_9allocatorIS1_EEE8_StorageD2B8ne180100Ev, symObjAddr: 0xD568, symBinAddr: 0x10000E514, symSize: 0x2C }
  - { offsetInCU: 0x1A8B1, offset: 0x1A8B1, size: 0x8, addend: 0x0, symName: __ZNSt3__120__shared_ptr_emplaceI10dielectricNS_9allocatorIS1_EEED2Ev, symObjAddr: 0xD594, symBinAddr: 0x10000E540, symSize: 0x48 }
  - { offsetInCU: 0x1A8DD, offset: 0x1A8DD, size: 0x8, addend: 0x0, symName: __ZNSt3__120__shared_ptr_emplaceI10dielectricNS_9allocatorIS1_EEE21__on_zero_shared_implB8ne180100IS3_Li0EEEvv, symObjAddr: 0xD5DC, symBinAddr: 0x10000E588, symSize: 0x44 }
  - { offsetInCU: 0x1A92D, offset: 0x1A92D, size: 0x8, addend: 0x0, symName: __ZNSt3__116allocator_traitsINS_9allocatorI10dielectricEEE7destroyB8ne180100IS2_vEEvRS3_PT_, symObjAddr: 0xD620, symBinAddr: 0x10000E5CC, symSize: 0x2C }
  - { offsetInCU: 0x1A96A, offset: 0x1A96A, size: 0x8, addend: 0x0, symName: __ZNSt3__19allocatorI10dielectricE7destroyB8ne180100EPS1_, symObjAddr: 0xD64C, symBinAddr: 0x10000E5F8, symSize: 0x30 }
  - { offsetInCU: 0x1A99E, offset: 0x1A99E, size: 0x8, addend: 0x0, symName: __ZNSt3__116allocator_traitsINS_9allocatorINS_20__shared_ptr_emplaceI10dielectricNS1_IS3_EEEEEEE10deallocateB8ne180100ERS6_PS5_m, symObjAddr: 0xD67C, symBinAddr: 0x10000E628, symSize: 0x34 }
  - { offsetInCU: 0x1A9E0, offset: 0x1A9E0, size: 0x8, addend: 0x0, symName: __ZNSt3__114pointer_traitsIPNS_20__shared_ptr_emplaceI10dielectricNS_9allocatorIS2_EEEEE10pointer_toB8ne180100ERS5_, symObjAddr: 0xD6B0, symBinAddr: 0x10000E65C, symSize: 0x14 }
  - { offsetInCU: 0x1AA03, offset: 0x1AA03, size: 0x8, addend: 0x0, symName: __ZNSt3__19allocatorINS_20__shared_ptr_emplaceI10dielectricNS0_IS2_EEEEE10deallocateB8ne180100EPS4_m, symObjAddr: 0xD6C4, symBinAddr: 0x10000E670, symSize: 0x44 }
  - { offsetInCU: 0x1AA45, offset: 0x1AA45, size: 0x8, addend: 0x0, symName: __ZNSt3__110shared_ptrI10dielectricEC1B8ne180100Ev, symObjAddr: 0xD708, symBinAddr: 0x10000E6B4, symSize: 0x2C }
  - { offsetInCU: 0x1AA6F, offset: 0x1AA6F, size: 0x8, addend: 0x0, symName: __ZNSt3__110shared_ptrI10dielectricE18__enable_weak_thisB8ne180100Ez, symObjAddr: 0xD734, symBinAddr: 0x10000E6E0, symSize: 0x10 }
  - { offsetInCU: 0x1AA96, offset: 0x1AA96, size: 0x8, addend: 0x0, symName: __ZNSt3__110shared_ptrI10dielectricEC2B8ne180100Ev, symObjAddr: 0xD744, symBinAddr: 0x10000E6F0, symSize: 0x1C }
  - { offsetInCU: 0x1AAC0, offset: 0x1AAC0, size: 0x8, addend: 0x0, symName: __ZNSt3__120__shared_ptr_emplaceI10dielectricNS_9allocatorIS1_EEE8_Storage10__get_elemB8ne180100Ev, symObjAddr: 0xD760, symBinAddr: 0x10000E70C, symSize: 0x3C }
  - { offsetInCU: 0x1AB13, offset: 0x1AB13, size: 0x8, addend: 0x0, symName: __ZNSt3__117__compressed_pairINS_9allocatorI10dielectricEES2_E17__get_second_baseB8ne180100EPS4_, symObjAddr: 0xD79C, symBinAddr: 0x10000E748, symSize: 0x14 }
  - { offsetInCU: 0x1AB36, offset: 0x1AB36, size: 0x8, addend: 0x0, symName: __ZNSt3__118__allocation_guardINS_9allocatorINS_20__shared_ptr_emplaceI10dielectricNS1_IS3_EEEEEEED2B8ne180100Ev, symObjAddr: 0xD7B0, symBinAddr: 0x10000E75C, symSize: 0x2C }
  - { offsetInCU: 0x1AB60, offset: 0x1AB60, size: 0x8, addend: 0x0, symName: __ZNSt3__118__allocation_guardINS_9allocatorINS_20__shared_ptr_emplaceI10dielectricNS1_IS3_EEEEEEE9__destroyB8ne180100Ev, symObjAddr: 0xD7DC, symBinAddr: 0x10000E788, symSize: 0x4C }
  - { offsetInCU: 0x1AB86, offset: 0x1AB86, size: 0x8, addend: 0x0, symName: __ZNSt3__19allocatorI10dielectricEC2B8ne180100Ev, symObjAddr: 0xD828, symBinAddr: 0x10000E7D4, symSize: 0x2C }
  - { offsetInCU: 0x1ABB0, offset: 0x1ABB0, size: 0x8, addend: 0x0, symName: __ZNSt3__116__non_trivial_ifILb1ENS_9allocatorI10dielectricEEEC2B8ne180100Ev, symObjAddr: 0xD854, symBinAddr: 0x10000E800, symSize: 0x14 }
  - { offsetInCU: 0x1ABDA, offset: 0x1ABDA, size: 0x8, addend: 0x0, symName: __ZNSt3__110shared_ptrI10dielectricED2B8ne180100Ev, symObjAddr: 0xD868, symBinAddr: 0x10000E814, symSize: 0x54 }
  - { offsetInCU: 0x1AC04, offset: 0x1AC04, size: 0x8, addend: 0x0, symName: __ZNSt3__110shared_ptrI8materialEC1B8ne180100I10dielectricvEEONS0_IT_EE, symObjAddr: 0xD8BC, symBinAddr: 0x10000E868, symSize: 0x34 }
  - { offsetInCU: 0x1AC47, offset: 0x1AC47, size: 0x8, addend: 0x0, symName: __ZNSt3__110shared_ptrI8materialEC2B8ne180100I10dielectricvEEONS0_IT_EE, symObjAddr: 0xD8F0, symBinAddr: 0x10000E89C, symSize: 0x40 }
  - { offsetInCU: 0x1AC8A, offset: 0x1AC8A, size: 0x8, addend: 0x0, symName: __ZNSt3__120__shared_ptr_emplaceI6sphereNS_9allocatorIS1_EEEC1B8ne180100IJ4vec3dRNS_10shared_ptrI10dielectricEEES3_Li0EEES3_DpOT_, symObjAddr: 0xD9D8, symBinAddr: 0x10000E984, symSize: 0x44 }
  - { offsetInCU: 0x1AD14, offset: 0x1AD14, size: 0x8, addend: 0x0, symName: __ZNSt3__120__shared_ptr_emplaceI6sphereNS_9allocatorIS1_EEEC2B8ne180100IJ4vec3dRNS_10shared_ptrI10dielectricEEES3_Li0EEES3_DpOT_, symObjAddr: 0xDA1C, symBinAddr: 0x10000E9C8, symSize: 0xD8 }
  - { offsetInCU: 0x1ADBF, offset: 0x1ADBF, size: 0x8, addend: 0x0, symName: __ZNSt3__116allocator_traitsINS_9allocatorI6sphereEEE9constructB8ne180100IS2_J4vec3dRNS_10shared_ptrI10dielectricEEEvEEvRS3_PT_DpOT0_, symObjAddr: 0xDAF4, symBinAddr: 0x10000EAA0, symSize: 0x44 }
  - { offsetInCU: 0x1AE3E, offset: 0x1AE3E, size: 0x8, addend: 0x0, symName: __ZNSt3__19allocatorI6sphereE9constructB8ne180100IS1_J4vec3dRNS_10shared_ptrI10dielectricEEEEEvPT_DpOT0_, symObjAddr: 0xDB38, symBinAddr: 0x10000EAE4, symSize: 0x98 }
  - { offsetInCU: 0x1AEBA, offset: 0x1AEBA, size: 0x8, addend: 0x0, symName: __ZNSt3__110shared_ptrI8materialEC1B8ne180100I10dielectricvEERKNS0_IT_EE, symObjAddr: 0xDBD0, symBinAddr: 0x10000EB7C, symSize: 0x34 }
  - { offsetInCU: 0x1AEFD, offset: 0x1AEFD, size: 0x8, addend: 0x0, symName: __ZNSt3__110shared_ptrI8materialEC2B8ne180100I10dielectricvEERKNS0_IT_EE, symObjAddr: 0xDC04, symBinAddr: 0x10000EBB0, symSize: 0x70 }
  - { offsetInCU: 0x1AF40, offset: 0x1AF40, size: 0x8, addend: 0x0, symName: __ZNSt3__120__shared_ptr_emplaceI6sphereNS_9allocatorIS1_EEEC1B8ne180100IJ4vec3dRNS_10shared_ptrI10lambertianEEES3_Li0EEES3_DpOT_, symObjAddr: 0xDD1C, symBinAddr: 0x10000ECC8, symSize: 0x44 }
  - { offsetInCU: 0x1AFCA, offset: 0x1AFCA, size: 0x8, addend: 0x0, symName: __ZNSt3__120__shared_ptr_emplaceI6sphereNS_9allocatorIS1_EEEC2B8ne180100IJ4vec3dRNS_10shared_ptrI10lambertianEEES3_Li0EEES3_DpOT_, symObjAddr: 0xDD60, symBinAddr: 0x10000ED0C, symSize: 0xD8 }
  - { offsetInCU: 0x1B075, offset: 0x1B075, size: 0x8, addend: 0x0, symName: __ZNSt3__116allocator_traitsINS_9allocatorI6sphereEEE9constructB8ne180100IS2_J4vec3dRNS_10shared_ptrI10lambertianEEEvEEvRS3_PT_DpOT0_, symObjAddr: 0xDE38, symBinAddr: 0x10000EDE4, symSize: 0x44 }
  - { offsetInCU: 0x1B0F4, offset: 0x1B0F4, size: 0x8, addend: 0x0, symName: __ZNSt3__19allocatorI6sphereE9constructB8ne180100IS1_J4vec3dRNS_10shared_ptrI10lambertianEEEEEvPT_DpOT0_, symObjAddr: 0xDE7C, symBinAddr: 0x10000EE28, symSize: 0x98 }
  - { offsetInCU: 0x1B170, offset: 0x1B170, size: 0x8, addend: 0x0, symName: __ZNSt3__120__shared_ptr_emplaceI5metalNS_9allocatorIS1_EEEC1B8ne180100IJ4vec3dES3_Li0EEES3_DpOT_, symObjAddr: 0xDFB4, symBinAddr: 0x10000EF60, symSize: 0x3C }
  - { offsetInCU: 0x1B1E6, offset: 0x1B1E6, size: 0x8, addend: 0x0, symName: __ZNSt3__120__shared_ptr_emplaceI5metalNS_9allocatorIS1_EEEC2B8ne180100IJ4vec3dES3_Li0EEES3_DpOT_, symObjAddr: 0xDFF0, symBinAddr: 0x10000EF9C, symSize: 0xD0 }
  - { offsetInCU: 0x1B27D, offset: 0x1B27D, size: 0x8, addend: 0x0, symName: __ZNSt3__116allocator_traitsINS_9allocatorI5metalEEE9constructB8ne180100IS2_J4vec3dEvEEvRS3_PT_DpOT0_, symObjAddr: 0xE0C0, symBinAddr: 0x10000F06C, symSize: 0x3C }
  - { offsetInCU: 0x1B2E8, offset: 0x1B2E8, size: 0x8, addend: 0x0, symName: __ZNSt3__19allocatorI5metalE9constructB8ne180100IS1_J4vec3dEEEvPT_DpOT0_, symObjAddr: 0xE0FC, symBinAddr: 0x10000F0A8, symSize: 0x3C }
  - { offsetInCU: 0x1B351, offset: 0x1B351, size: 0x8, addend: 0x0, symName: __ZNSt3__120__shared_ptr_emplaceI6sphereNS_9allocatorIS1_EEEC1B8ne180100IJ4vec3dRNS_10shared_ptrI5metalEEES3_Li0EEES3_DpOT_, symObjAddr: 0xE1E0, symBinAddr: 0x10000F18C, symSize: 0x44 }
  - { offsetInCU: 0x1B3DB, offset: 0x1B3DB, size: 0x8, addend: 0x0, symName: __ZNSt3__120__shared_ptr_emplaceI6sphereNS_9allocatorIS1_EEEC2B8ne180100IJ4vec3dRNS_10shared_ptrI5metalEEES3_Li0EEES3_DpOT_, symObjAddr: 0xE224, symBinAddr: 0x10000F1D0, symSize: 0xD8 }
  - { offsetInCU: 0x1B486, offset: 0x1B486, size: 0x8, addend: 0x0, symName: __ZNSt3__116allocator_traitsINS_9allocatorI6sphereEEE9constructB8ne180100IS2_J4vec3dRNS_10shared_ptrI5metalEEEvEEvRS3_PT_DpOT0_, symObjAddr: 0xE2FC, symBinAddr: 0x10000F2A8, symSize: 0x44 }
  - { offsetInCU: 0x1B505, offset: 0x1B505, size: 0x8, addend: 0x0, symName: __ZNSt3__19allocatorI6sphereE9constructB8ne180100IS1_J4vec3dRNS_10shared_ptrI5metalEEEEEvPT_DpOT0_, symObjAddr: 0xE340, symBinAddr: 0x10000F2EC, symSize: 0x98 }
  - { offsetInCU: 0x1B581, offset: 0x1B581, size: 0x8, addend: 0x0, symName: __ZNSt3__110shared_ptrI8materialEC1B8ne180100I5metalvEERKNS0_IT_EE, symObjAddr: 0xE3D8, symBinAddr: 0x10000F384, symSize: 0x34 }
  - { offsetInCU: 0x1B5C4, offset: 0x1B5C4, size: 0x8, addend: 0x0, symName: __ZNSt3__110shared_ptrI8materialEC2B8ne180100I5metalvEERKNS0_IT_EE, symObjAddr: 0xE40C, symBinAddr: 0x10000F3B8, symSize: 0x70 }
  - { offsetInCU: 0x1B607, offset: 0x1B607, size: 0x8, addend: 0x0, symName: __ZNSt3__19allocatorI3triEC1B8ne180100Ev, symObjAddr: 0xE52C, symBinAddr: 0x10000F4D8, symSize: 0x2C }
  - { offsetInCU: 0x1B67D, offset: 0x1B67D, size: 0x8, addend: 0x0, symName: __ZNSt3__118__allocation_guardINS_9allocatorINS_20__shared_ptr_emplaceI3triNS1_IS3_EEEEEEEC1B8ne180100IS4_EET_m, symObjAddr: 0xE558, symBinAddr: 0x10000F504, symSize: 0x34 }
  - { offsetInCU: 0x1B6CC, offset: 0x1B6CC, size: 0x8, addend: 0x0, symName: __ZNKSt3__118__allocation_guardINS_9allocatorINS_20__shared_ptr_emplaceI3triNS1_IS3_EEEEEEE5__getB8ne180100Ev, symObjAddr: 0xE58C, symBinAddr: 0x10000F538, symSize: 0x18 }
  - { offsetInCU: 0x1B6F2, offset: 0x1B6F2, size: 0x8, addend: 0x0, symName: __ZNSt3__120__shared_ptr_emplaceI3triNS_9allocatorIS1_EEEC1B8ne180100IJ4vec3S6_S6_RNS_10shared_ptrI10lambertianEEES3_Li0EEES3_DpOT_, symObjAddr: 0xE5A4, symBinAddr: 0x10000F550, symSize: 0x4C }
  - { offsetInCU: 0x1B790, offset: 0x1B790, size: 0x8, addend: 0x0, symName: __ZNSt3__118__allocation_guardINS_9allocatorINS_20__shared_ptr_emplaceI3triNS1_IS3_EEEEEEE13__release_ptrB8ne180100Ev, symObjAddr: 0xE5F0, symBinAddr: 0x10000F59C, symSize: 0x24 }
  - { offsetInCU: 0x1B7C4, offset: 0x1B7C4, size: 0x8, addend: 0x0, symName: __ZNSt3__110shared_ptrI3triE27__create_with_control_blockB8ne180100IS1_NS_20__shared_ptr_emplaceIS1_NS_9allocatorIS1_EEEEEES2_PT_PT0_, symObjAddr: 0xE614, symBinAddr: 0x10000F5C0, symSize: 0xA4 }
  - { offsetInCU: 0x1B819, offset: 0x1B819, size: 0x8, addend: 0x0, symName: __ZNSt3__120__shared_ptr_emplaceI3triNS_9allocatorIS1_EEE10__get_elemB8ne180100Ev, symObjAddr: 0xE6B8, symBinAddr: 0x10000F664, symSize: 0x28 }
  - { offsetInCU: 0x1B83F, offset: 0x1B83F, size: 0x8, addend: 0x0, symName: __ZNSt3__118__allocation_guardINS_9allocatorINS_20__shared_ptr_emplaceI3triNS1_IS3_EEEEEEED1B8ne180100Ev, symObjAddr: 0xE6E0, symBinAddr: 0x10000F68C, symSize: 0x2C }
  - { offsetInCU: 0x1B869, offset: 0x1B869, size: 0x8, addend: 0x0, symName: __ZNSt3__118__allocation_guardINS_9allocatorINS_20__shared_ptr_emplaceI3triNS1_IS3_EEEEEEEC2B8ne180100IS4_EET_m, symObjAddr: 0xE70C, symBinAddr: 0x10000F6B8, symSize: 0x50 }
  - { offsetInCU: 0x1B8B8, offset: 0x1B8B8, size: 0x8, addend: 0x0, symName: __ZNSt3__19allocatorINS_20__shared_ptr_emplaceI3triNS0_IS2_EEEEEC1B8ne180100IS2_EERKNS0_IT_EE, symObjAddr: 0xE75C, symBinAddr: 0x10000F708, symSize: 0x34 }
  - { offsetInCU: 0x1B8F6, offset: 0x1B8F6, size: 0x8, addend: 0x0, symName: __ZNSt3__116allocator_traitsINS_9allocatorINS_20__shared_ptr_emplaceI3triNS1_IS3_EEEEEEE8allocateB8ne180100ERS6_m, symObjAddr: 0xE790, symBinAddr: 0x10000F73C, symSize: 0x2C }
  - { offsetInCU: 0x1B929, offset: 0x1B929, size: 0x8, addend: 0x0, symName: __ZNSt3__19allocatorINS_20__shared_ptr_emplaceI3triNS0_IS2_EEEEEC2B8ne180100IS2_EERKNS0_IT_EE, symObjAddr: 0xE7BC, symBinAddr: 0x10000F768, symSize: 0x30 }
  - { offsetInCU: 0x1B967, offset: 0x1B967, size: 0x8, addend: 0x0, symName: __ZNSt3__116__non_trivial_ifILb1ENS_9allocatorINS_20__shared_ptr_emplaceI3triNS1_IS3_EEEEEEEC2B8ne180100Ev, symObjAddr: 0xE7EC, symBinAddr: 0x10000F798, symSize: 0x14 }
  - { offsetInCU: 0x1B991, offset: 0x1B991, size: 0x8, addend: 0x0, symName: __ZNSt3__19allocatorINS_20__shared_ptr_emplaceI3triNS0_IS2_EEEEE8allocateB8ne180100Em, symObjAddr: 0xE800, symBinAddr: 0x10000F7AC, symSize: 0x5C }
  - { offsetInCU: 0x1B9CF, offset: 0x1B9CF, size: 0x8, addend: 0x0, symName: __ZNSt3__116allocator_traitsINS_9allocatorINS_20__shared_ptr_emplaceI3triNS1_IS3_EEEEEEE8max_sizeB8ne180100IS6_vEEmRKS6_, symObjAddr: 0xE85C, symBinAddr: 0x10000F808, symSize: 0x24 }
  - { offsetInCU: 0x1B9FD, offset: 0x1B9FD, size: 0x8, addend: 0x0, symName: __ZNKSt3__19allocatorINS_20__shared_ptr_emplaceI3triNS0_IS2_EEEEE8max_sizeB8ne180100Ev, symObjAddr: 0xE880, symBinAddr: 0x10000F82C, symSize: 0x20 }
  - { offsetInCU: 0x1BA23, offset: 0x1BA23, size: 0x8, addend: 0x0, symName: __ZNSt3__120__shared_ptr_emplaceI3triNS_9allocatorIS1_EEEC2B8ne180100IJ4vec3S6_S6_RNS_10shared_ptrI10lambertianEEES3_Li0EEES3_DpOT_, symObjAddr: 0xE8A0, symBinAddr: 0x10000F84C, symSize: 0xE0 }
  - { offsetInCU: 0x1BAE2, offset: 0x1BAE2, size: 0x8, addend: 0x0, symName: __ZNSt3__120__shared_ptr_emplaceI3triNS_9allocatorIS1_EEE8_StorageC1B8ne180100EOS3_, symObjAddr: 0xE980, symBinAddr: 0x10000F92C, symSize: 0x34 }
  - { offsetInCU: 0x1BB1B, offset: 0x1BB1B, size: 0x8, addend: 0x0, symName: __ZNSt3__120__shared_ptr_emplaceI3triNS_9allocatorIS1_EEE11__get_allocB8ne180100Ev, symObjAddr: 0xE9B4, symBinAddr: 0x10000F960, symSize: 0x28 }
  - { offsetInCU: 0x1BB46, offset: 0x1BB46, size: 0x8, addend: 0x0, symName: __ZNSt3__116allocator_traitsINS_9allocatorI3triEEE9constructB8ne180100IS2_J4vec3S6_S6_RNS_10shared_ptrI10lambertianEEEvEEvRS3_PT_DpOT0_, symObjAddr: 0xE9DC, symBinAddr: 0x10000F988, symSize: 0x4C }
  - { offsetInCU: 0x1BBD9, offset: 0x1BBD9, size: 0x8, addend: 0x0, symName: __ZNSt3__120__shared_ptr_emplaceI3triNS_9allocatorIS1_EEE8_StorageD1B8ne180100Ev, symObjAddr: 0xEA28, symBinAddr: 0x10000F9D4, symSize: 0x2C }
  - { offsetInCU: 0x1BC03, offset: 0x1BC03, size: 0x8, addend: 0x0, symName: __ZNSt3__120__shared_ptr_emplaceI3triNS_9allocatorIS1_EEED1Ev, symObjAddr: 0xEA54, symBinAddr: 0x10000FA00, symSize: 0x2C }
  - { offsetInCU: 0x1BC2F, offset: 0x1BC2F, size: 0x8, addend: 0x0, symName: __ZNSt3__120__shared_ptr_emplaceI3triNS_9allocatorIS1_EEED0Ev, symObjAddr: 0xEA80, symBinAddr: 0x10000FA2C, symSize: 0x30 }
  - { offsetInCU: 0x1BC5B, offset: 0x1BC5B, size: 0x8, addend: 0x0, symName: __ZNSt3__120__shared_ptr_emplaceI3triNS_9allocatorIS1_EEE16__on_zero_sharedEv, symObjAddr: 0xEAB0, symBinAddr: 0x10000FA5C, symSize: 0x24 }
  - { offsetInCU: 0x1BC81, offset: 0x1BC81, size: 0x8, addend: 0x0, symName: __ZNSt3__120__shared_ptr_emplaceI3triNS_9allocatorIS1_EEE21__on_zero_shared_weakEv, symObjAddr: 0xEAD4, symBinAddr: 0x10000FA80, symSize: 0x5C }
  - { offsetInCU: 0x1BCC2, offset: 0x1BCC2, size: 0x8, addend: 0x0, symName: __ZNSt3__120__shared_ptr_emplaceI3triNS_9allocatorIS1_EEE8_StorageC2B8ne180100EOS3_, symObjAddr: 0xEB30, symBinAddr: 0x10000FADC, symSize: 0x30 }
  - { offsetInCU: 0x1BCFB, offset: 0x1BCFB, size: 0x8, addend: 0x0, symName: __ZNSt3__120__shared_ptr_emplaceI3triNS_9allocatorIS1_EEE8_Storage11__get_allocB8ne180100Ev, symObjAddr: 0xEB60, symBinAddr: 0x10000FB0C, symSize: 0x3C }
  - { offsetInCU: 0x1BD4E, offset: 0x1BD4E, size: 0x8, addend: 0x0, symName: __ZNSt3__117__compressed_pairINS_9allocatorI3triEES2_E16__get_first_baseB8ne180100EPS4_, symObjAddr: 0xEB9C, symBinAddr: 0x10000FB48, symSize: 0x14 }
  - { offsetInCU: 0x1BD71, offset: 0x1BD71, size: 0x8, addend: 0x0, symName: __ZNSt3__19allocatorI3triE9constructB8ne180100IS1_J4vec3S4_S4_RNS_10shared_ptrI10lambertianEEEEEvPT_DpOT0_, symObjAddr: 0xEBB0, symBinAddr: 0x10000FB5C, symSize: 0xA4 }
  - { offsetInCU: 0x1BE00, offset: 0x1BE00, size: 0x8, addend: 0x0, symName: __ZNSt3__120__shared_ptr_emplaceI3triNS_9allocatorIS1_EEE8_StorageD2B8ne180100Ev, symObjAddr: 0xEC54, symBinAddr: 0x10000FC00, symSize: 0x2C }
  - { offsetInCU: 0x1BE2A, offset: 0x1BE2A, size: 0x8, addend: 0x0, symName: __ZNSt3__120__shared_ptr_emplaceI3triNS_9allocatorIS1_EEED2Ev, symObjAddr: 0xEC80, symBinAddr: 0x10000FC2C, symSize: 0x48 }
  - { offsetInCU: 0x1BE56, offset: 0x1BE56, size: 0x8, addend: 0x0, symName: __ZNSt3__120__shared_ptr_emplaceI3triNS_9allocatorIS1_EEE21__on_zero_shared_implB8ne180100IS3_Li0EEEvv, symObjAddr: 0xECC8, symBinAddr: 0x10000FC74, symSize: 0x44 }
  - { offsetInCU: 0x1BEA6, offset: 0x1BEA6, size: 0x8, addend: 0x0, symName: __ZNSt3__116allocator_traitsINS_9allocatorI3triEEE7destroyB8ne180100IS2_vEEvRS3_PT_, symObjAddr: 0xED0C, symBinAddr: 0x10000FCB8, symSize: 0x2C }
  - { offsetInCU: 0x1BEE3, offset: 0x1BEE3, size: 0x8, addend: 0x0, symName: __ZNSt3__19allocatorI3triE7destroyB8ne180100EPS1_, symObjAddr: 0xED38, symBinAddr: 0x10000FCE4, symSize: 0x30 }
  - { offsetInCU: 0x1BF17, offset: 0x1BF17, size: 0x8, addend: 0x0, symName: __ZNSt3__116allocator_traitsINS_9allocatorINS_20__shared_ptr_emplaceI3triNS1_IS3_EEEEEEE10deallocateB8ne180100ERS6_PS5_m, symObjAddr: 0xED68, symBinAddr: 0x10000FD14, symSize: 0x34 }
  - { offsetInCU: 0x1BF59, offset: 0x1BF59, size: 0x8, addend: 0x0, symName: __ZNSt3__114pointer_traitsIPNS_20__shared_ptr_emplaceI3triNS_9allocatorIS2_EEEEE10pointer_toB8ne180100ERS5_, symObjAddr: 0xED9C, symBinAddr: 0x10000FD48, symSize: 0x14 }
  - { offsetInCU: 0x1BF7C, offset: 0x1BF7C, size: 0x8, addend: 0x0, symName: __ZNSt3__19allocatorINS_20__shared_ptr_emplaceI3triNS0_IS2_EEEEE10deallocateB8ne180100EPS4_m, symObjAddr: 0xEDB0, symBinAddr: 0x10000FD5C, symSize: 0x44 }
  - { offsetInCU: 0x1BFBE, offset: 0x1BFBE, size: 0x8, addend: 0x0, symName: __ZNSt3__110shared_ptrI3triEC1B8ne180100Ev, symObjAddr: 0xEDF4, symBinAddr: 0x10000FDA0, symSize: 0x2C }
  - { offsetInCU: 0x1BFE8, offset: 0x1BFE8, size: 0x8, addend: 0x0, symName: __ZNSt3__110shared_ptrI3triE18__enable_weak_thisB8ne180100Ez, symObjAddr: 0xEE20, symBinAddr: 0x10000FDCC, symSize: 0x10 }
  - { offsetInCU: 0x1C00F, offset: 0x1C00F, size: 0x8, addend: 0x0, symName: __ZNSt3__110shared_ptrI3triEC2B8ne180100Ev, symObjAddr: 0xEE30, symBinAddr: 0x10000FDDC, symSize: 0x1C }
  - { offsetInCU: 0x1C039, offset: 0x1C039, size: 0x8, addend: 0x0, symName: __ZNSt3__120__shared_ptr_emplaceI3triNS_9allocatorIS1_EEE8_Storage10__get_elemB8ne180100Ev, symObjAddr: 0xEE4C, symBinAddr: 0x10000FDF8, symSize: 0x3C }
  - { offsetInCU: 0x1C08C, offset: 0x1C08C, size: 0x8, addend: 0x0, symName: __ZNSt3__117__compressed_pairINS_9allocatorI3triEES2_E17__get_second_baseB8ne180100EPS4_, symObjAddr: 0xEE88, symBinAddr: 0x10000FE34, symSize: 0x14 }
  - { offsetInCU: 0x1C0AF, offset: 0x1C0AF, size: 0x8, addend: 0x0, symName: __ZNSt3__118__allocation_guardINS_9allocatorINS_20__shared_ptr_emplaceI3triNS1_IS3_EEEEEEED2B8ne180100Ev, symObjAddr: 0xEE9C, symBinAddr: 0x10000FE48, symSize: 0x2C }
  - { offsetInCU: 0x1C0D9, offset: 0x1C0D9, size: 0x8, addend: 0x0, symName: __ZNSt3__118__allocation_guardINS_9allocatorINS_20__shared_ptr_emplaceI3triNS1_IS3_EEEEEEE9__destroyB8ne180100Ev, symObjAddr: 0xEEC8, symBinAddr: 0x10000FE74, symSize: 0x4C }
  - { offsetInCU: 0x1C0FF, offset: 0x1C0FF, size: 0x8, addend: 0x0, symName: __ZNSt3__19allocatorI3triEC2B8ne180100Ev, symObjAddr: 0xEF14, symBinAddr: 0x10000FEC0, symSize: 0x2C }
  - { offsetInCU: 0x1C129, offset: 0x1C129, size: 0x8, addend: 0x0, symName: __ZNSt3__116__non_trivial_ifILb1ENS_9allocatorI3triEEEC2B8ne180100Ev, symObjAddr: 0xEF40, symBinAddr: 0x10000FEEC, symSize: 0x14 }
  - { offsetInCU: 0x1C153, offset: 0x1C153, size: 0x8, addend: 0x0, symName: __ZNSt3__110shared_ptrI3triED2B8ne180100Ev, symObjAddr: 0xEF54, symBinAddr: 0x10000FF00, symSize: 0x54 }
  - { offsetInCU: 0x1C17D, offset: 0x1C17D, size: 0x8, addend: 0x0, symName: __ZNSt3__110shared_ptrI8hittableEC2B8ne180100I3trivEEONS0_IT_EE, symObjAddr: 0xEFA8, symBinAddr: 0x10000FF54, symSize: 0x40 }
  - { offsetInCU: 0x1C1C0, offset: 0x1C1C0, size: 0x8, addend: 0x0, symName: __ZNSt3__19allocatorI4quadEC1B8ne180100Ev, symObjAddr: 0xF098, symBinAddr: 0x100010044, symSize: 0x2C }
  - { offsetInCU: 0x1C236, offset: 0x1C236, size: 0x8, addend: 0x0, symName: __ZNSt3__118__allocation_guardINS_9allocatorINS_20__shared_ptr_emplaceI4quadNS1_IS3_EEEEEEEC1B8ne180100IS4_EET_m, symObjAddr: 0xF0C4, symBinAddr: 0x100010070, symSize: 0x34 }
  - { offsetInCU: 0x1C285, offset: 0x1C285, size: 0x8, addend: 0x0, symName: __ZNKSt3__118__allocation_guardINS_9allocatorINS_20__shared_ptr_emplaceI4quadNS1_IS3_EEEEEEE5__getB8ne180100Ev, symObjAddr: 0xF0F8, symBinAddr: 0x1000100A4, symSize: 0x18 }
  - { offsetInCU: 0x1C2AB, offset: 0x1C2AB, size: 0x8, addend: 0x0, symName: __ZNSt3__120__shared_ptr_emplaceI4quadNS_9allocatorIS1_EEEC1B8ne180100IJ4vec3S6_S6_RNS_10shared_ptrI10lambertianEEES3_Li0EEES3_DpOT_, symObjAddr: 0xF110, symBinAddr: 0x1000100BC, symSize: 0x4C }
  - { offsetInCU: 0x1C349, offset: 0x1C349, size: 0x8, addend: 0x0, symName: __ZNSt3__118__allocation_guardINS_9allocatorINS_20__shared_ptr_emplaceI4quadNS1_IS3_EEEEEEE13__release_ptrB8ne180100Ev, symObjAddr: 0xF15C, symBinAddr: 0x100010108, symSize: 0x24 }
  - { offsetInCU: 0x1C37D, offset: 0x1C37D, size: 0x8, addend: 0x0, symName: __ZNSt3__110shared_ptrI4quadE27__create_with_control_blockB8ne180100IS1_NS_20__shared_ptr_emplaceIS1_NS_9allocatorIS1_EEEEEES2_PT_PT0_, symObjAddr: 0xF180, symBinAddr: 0x10001012C, symSize: 0xA4 }
  - { offsetInCU: 0x1C3D2, offset: 0x1C3D2, size: 0x8, addend: 0x0, symName: __ZNSt3__120__shared_ptr_emplaceI4quadNS_9allocatorIS1_EEE10__get_elemB8ne180100Ev, symObjAddr: 0xF224, symBinAddr: 0x1000101D0, symSize: 0x28 }
  - { offsetInCU: 0x1C3F8, offset: 0x1C3F8, size: 0x8, addend: 0x0, symName: __ZNSt3__118__allocation_guardINS_9allocatorINS_20__shared_ptr_emplaceI4quadNS1_IS3_EEEEEEED1B8ne180100Ev, symObjAddr: 0xF24C, symBinAddr: 0x1000101F8, symSize: 0x2C }
  - { offsetInCU: 0x1C422, offset: 0x1C422, size: 0x8, addend: 0x0, symName: __ZNSt3__118__allocation_guardINS_9allocatorINS_20__shared_ptr_emplaceI4quadNS1_IS3_EEEEEEEC2B8ne180100IS4_EET_m, symObjAddr: 0xF278, symBinAddr: 0x100010224, symSize: 0x50 }
  - { offsetInCU: 0x1C471, offset: 0x1C471, size: 0x8, addend: 0x0, symName: __ZNSt3__19allocatorINS_20__shared_ptr_emplaceI4quadNS0_IS2_EEEEEC1B8ne180100IS2_EERKNS0_IT_EE, symObjAddr: 0xF2C8, symBinAddr: 0x100010274, symSize: 0x34 }
  - { offsetInCU: 0x1C4AF, offset: 0x1C4AF, size: 0x8, addend: 0x0, symName: __ZNSt3__116allocator_traitsINS_9allocatorINS_20__shared_ptr_emplaceI4quadNS1_IS3_EEEEEEE8allocateB8ne180100ERS6_m, symObjAddr: 0xF2FC, symBinAddr: 0x1000102A8, symSize: 0x2C }
  - { offsetInCU: 0x1C4E2, offset: 0x1C4E2, size: 0x8, addend: 0x0, symName: __ZNSt3__19allocatorINS_20__shared_ptr_emplaceI4quadNS0_IS2_EEEEEC2B8ne180100IS2_EERKNS0_IT_EE, symObjAddr: 0xF328, symBinAddr: 0x1000102D4, symSize: 0x30 }
  - { offsetInCU: 0x1C520, offset: 0x1C520, size: 0x8, addend: 0x0, symName: __ZNSt3__116__non_trivial_ifILb1ENS_9allocatorINS_20__shared_ptr_emplaceI4quadNS1_IS3_EEEEEEEC2B8ne180100Ev, symObjAddr: 0xF358, symBinAddr: 0x100010304, symSize: 0x14 }
  - { offsetInCU: 0x1C54A, offset: 0x1C54A, size: 0x8, addend: 0x0, symName: __ZNSt3__19allocatorINS_20__shared_ptr_emplaceI4quadNS0_IS2_EEEEE8allocateB8ne180100Em, symObjAddr: 0xF36C, symBinAddr: 0x100010318, symSize: 0x5C }
  - { offsetInCU: 0x1C588, offset: 0x1C588, size: 0x8, addend: 0x0, symName: __ZNSt3__116allocator_traitsINS_9allocatorINS_20__shared_ptr_emplaceI4quadNS1_IS3_EEEEEEE8max_sizeB8ne180100IS6_vEEmRKS6_, symObjAddr: 0xF3C8, symBinAddr: 0x100010374, symSize: 0x24 }
  - { offsetInCU: 0x1C5B6, offset: 0x1C5B6, size: 0x8, addend: 0x0, symName: __ZNKSt3__19allocatorINS_20__shared_ptr_emplaceI4quadNS0_IS2_EEEEE8max_sizeB8ne180100Ev, symObjAddr: 0xF3EC, symBinAddr: 0x100010398, symSize: 0x20 }
  - { offsetInCU: 0x1C5DC, offset: 0x1C5DC, size: 0x8, addend: 0x0, symName: __ZNSt3__120__shared_ptr_emplaceI4quadNS_9allocatorIS1_EEEC2B8ne180100IJ4vec3S6_S6_RNS_10shared_ptrI10lambertianEEES3_Li0EEES3_DpOT_, symObjAddr: 0xF40C, symBinAddr: 0x1000103B8, symSize: 0xE0 }
  - { offsetInCU: 0x1C69B, offset: 0x1C69B, size: 0x8, addend: 0x0, symName: __ZNSt3__120__shared_ptr_emplaceI4quadNS_9allocatorIS1_EEE8_StorageC1B8ne180100EOS3_, symObjAddr: 0xF4EC, symBinAddr: 0x100010498, symSize: 0x34 }
  - { offsetInCU: 0x1C6D4, offset: 0x1C6D4, size: 0x8, addend: 0x0, symName: __ZNSt3__120__shared_ptr_emplaceI4quadNS_9allocatorIS1_EEE11__get_allocB8ne180100Ev, symObjAddr: 0xF520, symBinAddr: 0x1000104CC, symSize: 0x28 }
  - { offsetInCU: 0x1C6FF, offset: 0x1C6FF, size: 0x8, addend: 0x0, symName: __ZNSt3__116allocator_traitsINS_9allocatorI4quadEEE9constructB8ne180100IS2_J4vec3S6_S6_RNS_10shared_ptrI10lambertianEEEvEEvRS3_PT_DpOT0_, symObjAddr: 0xF548, symBinAddr: 0x1000104F4, symSize: 0x4C }
  - { offsetInCU: 0x1C792, offset: 0x1C792, size: 0x8, addend: 0x0, symName: __ZNSt3__120__shared_ptr_emplaceI4quadNS_9allocatorIS1_EEE8_StorageD1B8ne180100Ev, symObjAddr: 0xF594, symBinAddr: 0x100010540, symSize: 0x2C }
  - { offsetInCU: 0x1C7BC, offset: 0x1C7BC, size: 0x8, addend: 0x0, symName: __ZNSt3__120__shared_ptr_emplaceI4quadNS_9allocatorIS1_EEED1Ev, symObjAddr: 0xF5C0, symBinAddr: 0x10001056C, symSize: 0x2C }
  - { offsetInCU: 0x1C7E8, offset: 0x1C7E8, size: 0x8, addend: 0x0, symName: __ZNSt3__120__shared_ptr_emplaceI4quadNS_9allocatorIS1_EEED0Ev, symObjAddr: 0xF5EC, symBinAddr: 0x100010598, symSize: 0x30 }
  - { offsetInCU: 0x1C814, offset: 0x1C814, size: 0x8, addend: 0x0, symName: __ZNSt3__120__shared_ptr_emplaceI4quadNS_9allocatorIS1_EEE16__on_zero_sharedEv, symObjAddr: 0xF61C, symBinAddr: 0x1000105C8, symSize: 0x24 }
  - { offsetInCU: 0x1C83A, offset: 0x1C83A, size: 0x8, addend: 0x0, symName: __ZNSt3__120__shared_ptr_emplaceI4quadNS_9allocatorIS1_EEE21__on_zero_shared_weakEv, symObjAddr: 0xF640, symBinAddr: 0x1000105EC, symSize: 0x5C }
  - { offsetInCU: 0x1C87B, offset: 0x1C87B, size: 0x8, addend: 0x0, symName: __ZNSt3__120__shared_ptr_emplaceI4quadNS_9allocatorIS1_EEE8_StorageC2B8ne180100EOS3_, symObjAddr: 0xF69C, symBinAddr: 0x100010648, symSize: 0x30 }
  - { offsetInCU: 0x1C8B4, offset: 0x1C8B4, size: 0x8, addend: 0x0, symName: __ZNSt3__120__shared_ptr_emplaceI4quadNS_9allocatorIS1_EEE8_Storage11__get_allocB8ne180100Ev, symObjAddr: 0xF6CC, symBinAddr: 0x100010678, symSize: 0x3C }
  - { offsetInCU: 0x1C907, offset: 0x1C907, size: 0x8, addend: 0x0, symName: __ZNSt3__117__compressed_pairINS_9allocatorI4quadEES2_E16__get_first_baseB8ne180100EPS4_, symObjAddr: 0xF708, symBinAddr: 0x1000106B4, symSize: 0x14 }
  - { offsetInCU: 0x1C92A, offset: 0x1C92A, size: 0x8, addend: 0x0, symName: __ZNSt3__19allocatorI4quadE9constructB8ne180100IS1_J4vec3S4_S4_RNS_10shared_ptrI10lambertianEEEEEvPT_DpOT0_, symObjAddr: 0xF71C, symBinAddr: 0x1000106C8, symSize: 0xA4 }
  - { offsetInCU: 0x1C9B9, offset: 0x1C9B9, size: 0x8, addend: 0x0, symName: __ZN4quadC1ERK4vec3S2_S2_NSt3__110shared_ptrI8materialEE, symObjAddr: 0xF7C0, symBinAddr: 0x10001076C, symSize: 0x4C }
  - { offsetInCU: 0x1CA1C, offset: 0x1CA1C, size: 0x8, addend: 0x0, symName: __ZN4quadC2ERK4vec3S2_S2_NSt3__110shared_ptrI8materialEE, symObjAddr: 0xF80C, symBinAddr: 0x1000107B8, symSize: 0x1EC }
  - { offsetInCU: 0x1CA94, offset: 0x1CA94, size: 0x8, addend: 0x0, symName: __ZN4quadD1Ev, symObjAddr: 0xF9F8, symBinAddr: 0x1000109A4, symSize: 0x2C }
  - { offsetInCU: 0x1CAC0, offset: 0x1CAC0, size: 0x8, addend: 0x0, symName: __ZN4quadD0Ev, symObjAddr: 0xFA24, symBinAddr: 0x1000109D0, symSize: 0x30 }
  - { offsetInCU: 0x1CAEC, offset: 0x1CAEC, size: 0x8, addend: 0x0, symName: __ZNK4quad3hitERK3ray8intervalR10hit_record, symObjAddr: 0xFA54, symBinAddr: 0x100010A00, symSize: 0x228 }
  - { offsetInCU: 0x1CB94, offset: 0x1CB94, size: 0x8, addend: 0x0, symName: __ZNK4quad4minsEv, symObjAddr: 0xFC7C, symBinAddr: 0x100010C28, symSize: 0x3D4 }
  - { offsetInCU: 0x1CBC8, offset: 0x1CBC8, size: 0x8, addend: 0x0, symName: __ZNK4quad4maxsEv, symObjAddr: 0x10050, symBinAddr: 0x100010FFC, symSize: 0x3D4 }
  - { offsetInCU: 0x1CBFC, offset: 0x1CBFC, size: 0x8, addend: 0x0, symName: __ZNK4quad4centEv, symObjAddr: 0x10424, symBinAddr: 0x1000113D0, symSize: 0x1FC }
  - { offsetInCU: 0x1CC30, offset: 0x1CC30, size: 0x8, addend: 0x0, symName: __ZNK4quad11is_interiorEddR10hit_record, symObjAddr: 0x10620, symBinAddr: 0x1000115CC, symSize: 0x94 }
  - { offsetInCU: 0x1CC8E, offset: 0x1CC8E, size: 0x8, addend: 0x0, symName: __ZN4quadD2Ev, symObjAddr: 0x106B4, symBinAddr: 0x100011660, symSize: 0x48 }
  - { offsetInCU: 0x1CCBA, offset: 0x1CCBA, size: 0x8, addend: 0x0, symName: __ZNSt3__120__shared_ptr_emplaceI4quadNS_9allocatorIS1_EEE8_StorageD2B8ne180100Ev, symObjAddr: 0x106FC, symBinAddr: 0x1000116A8, symSize: 0x2C }
  - { offsetInCU: 0x1CCE4, offset: 0x1CCE4, size: 0x8, addend: 0x0, symName: __ZNSt3__120__shared_ptr_emplaceI4quadNS_9allocatorIS1_EEED2Ev, symObjAddr: 0x10728, symBinAddr: 0x1000116D4, symSize: 0x48 }
  - { offsetInCU: 0x1CD10, offset: 0x1CD10, size: 0x8, addend: 0x0, symName: __ZNSt3__120__shared_ptr_emplaceI4quadNS_9allocatorIS1_EEE21__on_zero_shared_implB8ne180100IS3_Li0EEEvv, symObjAddr: 0x10770, symBinAddr: 0x10001171C, symSize: 0x44 }
  - { offsetInCU: 0x1CD60, offset: 0x1CD60, size: 0x8, addend: 0x0, symName: __ZNSt3__116allocator_traitsINS_9allocatorI4quadEEE7destroyB8ne180100IS2_vEEvRS3_PT_, symObjAddr: 0x107B4, symBinAddr: 0x100011760, symSize: 0x2C }
  - { offsetInCU: 0x1CD9D, offset: 0x1CD9D, size: 0x8, addend: 0x0, symName: __ZNSt3__19allocatorI4quadE7destroyB8ne180100EPS1_, symObjAddr: 0x107E0, symBinAddr: 0x10001178C, symSize: 0x30 }
  - { offsetInCU: 0x1CDD1, offset: 0x1CDD1, size: 0x8, addend: 0x0, symName: __ZNSt3__116allocator_traitsINS_9allocatorINS_20__shared_ptr_emplaceI4quadNS1_IS3_EEEEEEE10deallocateB8ne180100ERS6_PS5_m, symObjAddr: 0x10810, symBinAddr: 0x1000117BC, symSize: 0x34 }
  - { offsetInCU: 0x1CE13, offset: 0x1CE13, size: 0x8, addend: 0x0, symName: __ZNSt3__114pointer_traitsIPNS_20__shared_ptr_emplaceI4quadNS_9allocatorIS2_EEEEE10pointer_toB8ne180100ERS5_, symObjAddr: 0x10844, symBinAddr: 0x1000117F0, symSize: 0x14 }
  - { offsetInCU: 0x1CE36, offset: 0x1CE36, size: 0x8, addend: 0x0, symName: __ZNSt3__19allocatorINS_20__shared_ptr_emplaceI4quadNS0_IS2_EEEEE10deallocateB8ne180100EPS4_m, symObjAddr: 0x10858, symBinAddr: 0x100011804, symSize: 0x44 }
  - { offsetInCU: 0x1CE78, offset: 0x1CE78, size: 0x8, addend: 0x0, symName: __ZNSt3__110shared_ptrI4quadEC1B8ne180100Ev, symObjAddr: 0x1089C, symBinAddr: 0x100011848, symSize: 0x2C }
  - { offsetInCU: 0x1CEA2, offset: 0x1CEA2, size: 0x8, addend: 0x0, symName: __ZNSt3__110shared_ptrI4quadE18__enable_weak_thisB8ne180100Ez, symObjAddr: 0x108C8, symBinAddr: 0x100011874, symSize: 0x10 }
  - { offsetInCU: 0x1CEC9, offset: 0x1CEC9, size: 0x8, addend: 0x0, symName: __ZNSt3__110shared_ptrI4quadEC2B8ne180100Ev, symObjAddr: 0x108D8, symBinAddr: 0x100011884, symSize: 0x1C }
  - { offsetInCU: 0x1CEF3, offset: 0x1CEF3, size: 0x8, addend: 0x0, symName: __ZNSt3__120__shared_ptr_emplaceI4quadNS_9allocatorIS1_EEE8_Storage10__get_elemB8ne180100Ev, symObjAddr: 0x108F4, symBinAddr: 0x1000118A0, symSize: 0x3C }
  - { offsetInCU: 0x1CF46, offset: 0x1CF46, size: 0x8, addend: 0x0, symName: __ZNSt3__117__compressed_pairINS_9allocatorI4quadEES2_E17__get_second_baseB8ne180100EPS4_, symObjAddr: 0x10930, symBinAddr: 0x1000118DC, symSize: 0x14 }
  - { offsetInCU: 0x1CF69, offset: 0x1CF69, size: 0x8, addend: 0x0, symName: __ZNSt3__118__allocation_guardINS_9allocatorINS_20__shared_ptr_emplaceI4quadNS1_IS3_EEEEEEED2B8ne180100Ev, symObjAddr: 0x10944, symBinAddr: 0x1000118F0, symSize: 0x2C }
  - { offsetInCU: 0x1CF93, offset: 0x1CF93, size: 0x8, addend: 0x0, symName: __ZNSt3__118__allocation_guardINS_9allocatorINS_20__shared_ptr_emplaceI4quadNS1_IS3_EEEEEEE9__destroyB8ne180100Ev, symObjAddr: 0x10970, symBinAddr: 0x10001191C, symSize: 0x4C }
  - { offsetInCU: 0x1CFB9, offset: 0x1CFB9, size: 0x8, addend: 0x0, symName: __ZNSt3__19allocatorI4quadEC2B8ne180100Ev, symObjAddr: 0x109BC, symBinAddr: 0x100011968, symSize: 0x2C }
  - { offsetInCU: 0x1CFE3, offset: 0x1CFE3, size: 0x8, addend: 0x0, symName: __ZNSt3__116__non_trivial_ifILb1ENS_9allocatorI4quadEEEC2B8ne180100Ev, symObjAddr: 0x109E8, symBinAddr: 0x100011994, symSize: 0x14 }
  - { offsetInCU: 0x1D00D, offset: 0x1D00D, size: 0x8, addend: 0x0, symName: __ZNSt3__110shared_ptrI4quadED2B8ne180100Ev, symObjAddr: 0x109FC, symBinAddr: 0x1000119A8, symSize: 0x54 }
  - { offsetInCU: 0x1D037, offset: 0x1D037, size: 0x8, addend: 0x0, symName: __ZNSt3__110shared_ptrI8hittableEC2B8ne180100I4quadvEEONS0_IT_EE, symObjAddr: 0x10A50, symBinAddr: 0x1000119FC, symSize: 0x40 }
  - { offsetInCU: 0x1D07A, offset: 0x1D07A, size: 0x8, addend: 0x0, symName: __ZNSt3__123mersenne_twister_engineIjLm32ELm624ELm397ELm31ELj2567483615ELm11ELj4294967295ELm7ELj2636928640ELm15ELj4022730752ELm18ELj1812433253EEC2B8ne180100Ej, symObjAddr: 0x10A90, symBinAddr: 0x100011A3C, symSize: 0x34 }
  - { offsetInCU: 0x1D0B2, offset: 0x1D0B2, size: 0x8, addend: 0x0, symName: __ZNSt3__123mersenne_twister_engineIjLm32ELm624ELm397ELm31ELj2567483615ELm11ELj4294967295ELm7ELj2636928640ELm15ELj4022730752ELm18ELj1812433253EE4seedEj, symObjAddr: 0x10AC4, symBinAddr: 0x100011A70, symSize: 0xC4 }
  - { offsetInCU: 0x1D105, offset: 0x1D105, size: 0x8, addend: 0x0, symName: __ZNSt3__123mersenne_twister_engineIjLm32ELm624ELm397ELm31ELj2567483615ELm11ELj4294967295ELm7ELj2636928640ELm15ELj4022730752ELm18ELj1812433253EE8__rshiftB8ne180100ILm30ELi0EEEjj, symObjAddr: 0x10B88, symBinAddr: 0x100011B34, symSize: 0x18 }
  - { offsetInCU: 0x1D139, offset: 0x1D139, size: 0x8, addend: 0x0, symName: __ZNSt3__125uniform_real_distributionIdEC2B8ne180100Edd, symObjAddr: 0x10BA0, symBinAddr: 0x100011B4C, symSize: 0x3C }
  - { offsetInCU: 0x1D17F, offset: 0x1D17F, size: 0x8, addend: 0x0, symName: __ZNSt3__125uniform_real_distributionIdE10param_typeC1B8ne180100Edd, symObjAddr: 0x10BDC, symBinAddr: 0x100011B88, symSize: 0x3C }
  - { offsetInCU: 0x1D1C5, offset: 0x1D1C5, size: 0x8, addend: 0x0, symName: __ZNSt3__125uniform_real_distributionIdE10param_typeC2B8ne180100Edd, symObjAddr: 0x10C18, symBinAddr: 0x100011BC4, symSize: 0x2C }
  - { offsetInCU: 0x1D20B, offset: 0x1D20B, size: 0x8, addend: 0x0, symName: __ZNSt3__125uniform_real_distributionIdEclINS_23mersenne_twister_engineIjLm32ELm624ELm397ELm31ELj2567483615ELm11ELj4294967295ELm7ELj2636928640ELm15ELj4022730752ELm18ELj1812433253EEEEEdRT_RKNS1_10param_typeE, symObjAddr: 0x10C44, symBinAddr: 0x100011BF0, symSize: 0x6C }
  - { offsetInCU: 0x1D257, offset: 0x1D257, size: 0x8, addend: 0x0, symName: __ZNKSt3__125uniform_real_distributionIdE10param_type1bB8ne180100Ev, symObjAddr: 0x10CB0, symBinAddr: 0x100011C5C, symSize: 0x18 }
  - { offsetInCU: 0x1D27D, offset: 0x1D27D, size: 0x8, addend: 0x0, symName: __ZNKSt3__125uniform_real_distributionIdE10param_type1aB8ne180100Ev, symObjAddr: 0x10CC8, symBinAddr: 0x100011C74, symSize: 0x18 }
  - { offsetInCU: 0x1D2A3, offset: 0x1D2A3, size: 0x8, addend: 0x0, symName: __ZNSt3__123mersenne_twister_engineIjLm32ELm624ELm397ELm31ELj2567483615ELm11ELj4294967295ELm7ELj2636928640ELm15ELj4022730752ELm18ELj1812433253EE3maxB8ne180100Ev, symObjAddr: 0x10DF4, symBinAddr: 0x100011DA0, symSize: 0x8 }
  - { offsetInCU: 0x1D2B7, offset: 0x1D2B7, size: 0x8, addend: 0x0, symName: __ZNSt3__123mersenne_twister_engineIjLm32ELm624ELm397ELm31ELj2567483615ELm11ELj4294967295ELm7ELj2636928640ELm15ELj4022730752ELm18ELj1812433253EE3minB8ne180100Ev, symObjAddr: 0x10DFC, symBinAddr: 0x100011DA8, symSize: 0x8 }
  - { offsetInCU: 0x1D2CB, offset: 0x1D2CB, size: 0x8, addend: 0x0, symName: __ZNSt3__123mersenne_twister_engineIjLm32ELm624ELm397ELm31ELj2567483615ELm11ELj4294967295ELm7ELj2636928640ELm15ELj4022730752ELm18ELj1812433253EEclEv, symObjAddr: 0x10E04, symBinAddr: 0x100011DB0, symSize: 0x14C }
  - { offsetInCU: 0x1D33E, offset: 0x1D33E, size: 0x8, addend: 0x0, symName: __ZNSt3__123mersenne_twister_engineIjLm32ELm624ELm397ELm31ELj2567483615ELm11ELj4294967295ELm7ELj2636928640ELm15ELj4022730752ELm18ELj1812433253EE8__rshiftB8ne180100ILm1ELi0EEEjj, symObjAddr: 0x10F50, symBinAddr: 0x100011EFC, symSize: 0x18 }
  - { offsetInCU: 0x1D372, offset: 0x1D372, size: 0x8, addend: 0x0, symName: __ZNSt3__123mersenne_twister_engineIjLm32ELm624ELm397ELm31ELj2567483615ELm11ELj4294967295ELm7ELj2636928640ELm15ELj4022730752ELm18ELj1812433253EE8__rshiftB8ne180100ILm11ELi0EEEjj, symObjAddr: 0x10F68, symBinAddr: 0x100011F14, symSize: 0x18 }
  - { offsetInCU: 0x1D3A6, offset: 0x1D3A6, size: 0x8, addend: 0x0, symName: __ZNSt3__123mersenne_twister_engineIjLm32ELm624ELm397ELm31ELj2567483615ELm11ELj4294967295ELm7ELj2636928640ELm15ELj4022730752ELm18ELj1812433253EE8__lshiftB8ne180100ILm7ELi0EEEjj, symObjAddr: 0x10F80, symBinAddr: 0x100011F2C, symSize: 0x1C }
  - { offsetInCU: 0x1D3DA, offset: 0x1D3DA, size: 0x8, addend: 0x0, symName: __ZNSt3__123mersenne_twister_engineIjLm32ELm624ELm397ELm31ELj2567483615ELm11ELj4294967295ELm7ELj2636928640ELm15ELj4022730752ELm18ELj1812433253EE8__lshiftB8ne180100ILm15ELi0EEEjj, symObjAddr: 0x10F9C, symBinAddr: 0x100011F48, symSize: 0x1C }
  - { offsetInCU: 0x1D40E, offset: 0x1D40E, size: 0x8, addend: 0x0, symName: __ZNSt3__123mersenne_twister_engineIjLm32ELm624ELm397ELm31ELj2567483615ELm11ELj4294967295ELm7ELj2636928640ELm15ELj4022730752ELm18ELj1812433253EE8__rshiftB8ne180100ILm18ELi0EEEjj, symObjAddr: 0x10FB8, symBinAddr: 0x100011F64, symSize: 0x18 }
  - { offsetInCU: 0x1D442, offset: 0x1D442, size: 0x8, addend: 0x0, symName: __ZNSt3__120__shared_ptr_emplaceI3triNS_9allocatorIS1_EEEC1B8ne180100IJR4vec3S7_S7_NS_10shared_ptrI10lambertianEEES3_Li0EEES3_DpOT_, symObjAddr: 0x11080, symBinAddr: 0x10001202C, symSize: 0x4C }
  - { offsetInCU: 0x1D4E0, offset: 0x1D4E0, size: 0x8, addend: 0x0, symName: __ZNSt3__120__shared_ptr_emplaceI3triNS_9allocatorIS1_EEEC2B8ne180100IJR4vec3S7_S7_NS_10shared_ptrI10lambertianEEES3_Li0EEES3_DpOT_, symObjAddr: 0x110CC, symBinAddr: 0x100012078, symSize: 0xE0 }
  - { offsetInCU: 0x1D59F, offset: 0x1D59F, size: 0x8, addend: 0x0, symName: __ZNSt3__116allocator_traitsINS_9allocatorI3triEEE9constructB8ne180100IS2_JR4vec3S7_S7_NS_10shared_ptrI10lambertianEEEvEEvRS3_PT_DpOT0_, symObjAddr: 0x111AC, symBinAddr: 0x100012158, symSize: 0x4C }
  - { offsetInCU: 0x1D632, offset: 0x1D632, size: 0x8, addend: 0x0, symName: __ZNSt3__19allocatorI3triE9constructB8ne180100IS1_JR4vec3S5_S5_NS_10shared_ptrI10lambertianEEEEEvPT_DpOT0_, symObjAddr: 0x111F8, symBinAddr: 0x1000121A4, symSize: 0xA4 }
  - { offsetInCU: 0x1D6C1, offset: 0x1D6C1, size: 0x8, addend: 0x0, symName: __ZNSt3__110shared_ptrI8materialEC2B8ne180100I10lambertianvEERKNS0_IT_EE, symObjAddr: 0x1129C, symBinAddr: 0x100012248, symSize: 0x70 }
  - { offsetInCU: 0x1D704, offset: 0x1D704, size: 0x8, addend: 0x0, symName: __ZNSt3__110shared_ptrI8hittableEC2B8ne180100I3trivEERKNS0_IT_EE, symObjAddr: 0x1130C, symBinAddr: 0x1000122B8, symSize: 0x70 }
...
